CCS PCH C Compiler, Version 4.104, 5967               19-oct-15 22:52

               Filename: C:\Users\JAIME DIAZ\Desktop\LABORATORIOS UD\PROGRAMAS PIC\comunicacion serial basica PIC\comunicacion serial 1.lst

               ROM used: 6070 bytes (19%)
                         Largest free fragment is 26694
               RAM used: 130 (6%) at main() level
                         143 (7%) worst case
               Stack:    7 worst case (6 in main + 1 for interrupts)

*
0000:  GOTO   1576
*
0008:  MOVWF  04
000A:  MOVFF  FD8,05
000E:  MOVFF  FE0,06
0012:  MOVLB  0
0014:  MOVFF  FE9,0C
0018:  MOVFF  FEA,07
001C:  MOVFF  FE1,08
0020:  MOVFF  FE2,09
0024:  MOVFF  FD9,0A
0028:  MOVFF  FDA,0B
002C:  MOVFF  FF3,12
0030:  MOVFF  FF4,13
0034:  MOVFF  FFA,14
0038:  MOVFF  00,0E
003C:  MOVFF  01,0F
0040:  MOVFF  02,10
0044:  MOVFF  03,11
0048:  BTFSS  F9D.5
004A:  GOTO   0054
004E:  BTFSC  F9E.5
0050:  GOTO   133E
0054:  MOVFF  0E,00
0058:  MOVFF  0F,01
005C:  MOVFF  10,02
0060:  MOVFF  11,03
0064:  MOVFF  0C,FE9
0068:  MOVFF  07,FEA
006C:  BSF    07.7
006E:  MOVFF  08,FE1
0072:  MOVFF  09,FE2
0076:  MOVFF  0A,FD9
007A:  MOVFF  0B,FDA
007E:  MOVFF  12,FF3
0082:  MOVFF  13,FF4
0086:  MOVFF  14,FFA
008A:  MOVF   04,W
008C:  MOVFF  06,FE0
0090:  MOVFF  05,FD8
0094:  RETFIE 0
.................... #include <18f4550.h> 
.................... //////// Standard Header file for the PIC18F4550 device //////////////// 
.................... #device PIC18F4550 
.................... #list 
....................  
.................... #fuses HS,NOWDT,NOPROTECT,NOLVP,PUT,BROWNOUT 
.................... #FUSES CPUDIV1         //DIVISION DE FRECUENCIA DEL OSCILADOR: 1 
.................... #use delay(clock=20000000) 
*
13BE:  CLRF   FEA
13C0:  MOVLW  84
13C2:  MOVWF  FE9
13C4:  MOVF   FEF,W
13C6:  BZ    13E2
13C8:  MOVLW  06
13CA:  MOVWF  01
13CC:  CLRF   00
13CE:  DECFSZ 00,F
13D0:  BRA    13CE
13D2:  DECFSZ 01,F
13D4:  BRA    13CC
13D6:  MOVLW  7B
13D8:  MOVWF  00
13DA:  DECFSZ 00,F
13DC:  BRA    13DA
13DE:  DECFSZ FEF,F
13E0:  BRA    13C8
13E2:  RETLW  00
.................... #use rs232(baud=9600, xmit=PIN_C6, rcv=PIN_C7,STREAM=pc 1) 
*
156C:  BTFSS  F9E.4
156E:  BRA    156C
1570:  MOVWF  FAD
1572:  GOTO   1716 (RETURN)
.................... #include <lcd.c> 
.................... /////////////////////////////////////////////////////////////////////////////// 
.................... ////                             LCD.C                                     //// 
.................... ////                 Driver for common LCD modules                         //// 
.................... ////                                                                       //// 
.................... ////  lcd_init()   Must be called before any other function.               //// 
.................... ////                                                                       //// 
.................... ////  lcd_putc(c)  Will display c on the next position of the LCD.         //// 
.................... ////                     The following have special meaning:               //// 
.................... ////                      \f  Clear display                                //// 
.................... ////                      \n  Go to start of second line                   //// 
.................... ////                      \b  Move back one position                       //// 
.................... ////                                                                       //// 
.................... ////  lcd_gotoxy(x,y) Set write position on LCD (upper left is 1,1)        //// 
.................... ////                                                                       //// 
.................... ////  lcd_getc(x,y)   Returns character at position x,y on LCD             //// 
.................... ////                                                                       //// 
.................... ////  CONFIGURATION                                                        //// 
.................... ////  The LCD can be configured in one of two ways: a.) port access or     //// 
.................... ////  b.) pin access.  Port access requires the entire 7 bit interface     //// 
.................... ////  connected to one GPIO port, and the data bits (D4:D7 of the LCD)     //// 
.................... ////  connected to sequential pins on the GPIO.  Pin access                //// 
.................... ////  has no requirements, all 7 bits of the control interface can         //// 
.................... ////  can be connected to any GPIO using several ports.                    //// 
.................... ////                                                                       //// 
.................... ////  To use port access, #define LCD_DATA_PORT to the SFR location of     //// 
.................... ////  of the GPIO port that holds the interface, -AND- edit LCD_PIN_MAP    //// 
.................... ////  of this file to configure the pin order.  If you are using a         //// 
.................... ////  baseline PIC (PCB), then LCD_OUTPUT_MAP and LCD_INPUT_MAP also must  //// 
.................... ////  be defined.                                                          //// 
.................... ////                                                                       //// 
.................... ////  Example of port access:                                              //// 
.................... ////     #define LCD_DATA_PORT getenv("SFR:PORTD")                         //// 
.................... ////                                                                       //// 
.................... ////  To use pin access, the following pins must be defined:               //// 
.................... ////     LCD_ENABLE_PIN                                                    //// 
.................... ////     LCD_RS_PIN                                                        //// 
.................... ////     LCD_RW_PIN                                                        //// 
.................... ////     LCD_DATA4                                                         //// 
.................... ////     LCD_DATA5                                                         //// 
.................... ////     LCD_DATA6                                                         //// 
.................... ////     LCD_DATA7                                                         //// 
.................... ////                                                                       //// 
.................... ////  Example of pin access:                                               //// 
.................... ////     #define LCD_ENABLE_PIN  PIN_E0                                    //// 
.................... ////     #define LCD_RS_PIN      PIN_E1                                    //// 
.................... ////     #define LCD_RW_PIN      PIN_E2                                    //// 
.................... ////     #define LCD_DATA4       PIN_D4                                    //// 
.................... ////     #define LCD_DATA5       PIN_D5                                    //// 
.................... ////     #define LCD_DATA6       PIN_D6                                    //// 
.................... ////     #define LCD_DATA7       PIN_D7                                    //// 
.................... ////                                                                       //// 
.................... /////////////////////////////////////////////////////////////////////////////// 
.................... ////        (C) Copyright 1996,2009 Custom Computer Services           //// 
.................... //// This source code may only be used by licensed users of the CCS C  //// 
.................... //// compiler.  This source code may only be distributed to other      //// 
.................... //// licensed users of the CCS C compiler.  No other use, reproduction //// 
.................... //// or distribution is permitted without written permission.          //// 
.................... //// Derivative programs created using this software in object code    //// 
.................... //// form are not restricted in any way.                               //// 
.................... /////////////////////////////////////////////////////////////////////////// 
....................  
.................... // define the pinout. 
.................... // only required if port access is being used. 
.................... typedef struct   
.................... {                            // This structure is overlayed 
....................    BOOLEAN enable;           // on to an I/O port to gain 
....................    BOOLEAN rs;               // access to the LCD pins. 
....................    BOOLEAN rw;               // The bits are allocated from 
....................    BOOLEAN unused;           // low order up.  ENABLE will 
....................    int     data : 4;         // be LSB pin of that port. 
....................   #if defined(__PCD__)       // The port used will be LCD_DATA_PORT. 
....................    int    reserved: 8; 
....................   #endif 
.................... } LCD_PIN_MAP; 
....................  
.................... // this is to improve compatability with previous LCD drivers that accepted 
.................... // a define labeled 'use_portb_lcd' that configured the LCD onto port B. 
.................... #if ((defined(use_portb_lcd)) && (use_portb_lcd==TRUE)) 
....................  #define LCD_DATA_PORT getenv("SFR:PORTB") 
.................... #endif 
....................  
.................... #if defined(__PCB__) 
....................    // these definitions only need to be modified for baseline PICs. 
....................    // all other PICs use LCD_PIN_MAP or individual LCD_xxx pin definitions. 
.................... /*                                    EN, RS,   RW,   UNUSED,  DATA  */ 
....................  const LCD_PIN_MAP LCD_OUTPUT_MAP =  {0,  0,    0,    0,       0}; 
....................  const LCD_PIN_MAP LCD_INPUT_MAP =   {0,  0,    0,    0,       0xF}; 
.................... #endif 
....................  
.................... ////////////////////// END CONFIGURATION /////////////////////////////////// 
....................  
.................... #ifndef LCD_ENABLE_PIN 
....................    #define lcd_output_enable(x) lcdlat.enable=x 
....................    #define lcd_enable_tris()   lcdtris.enable=0 
.................... #else 
....................    #define lcd_output_enable(x) output_bit(LCD_ENABLE_PIN, x) 
....................    #define lcd_enable_tris()  output_drive(LCD_ENABLE_PIN) 
.................... #endif 
....................  
.................... #ifndef LCD_RS_PIN 
....................    #define lcd_output_rs(x) lcdlat.rs=x 
....................    #define lcd_rs_tris()   lcdtris.rs=0 
.................... #else 
....................    #define lcd_output_rs(x) output_bit(LCD_RS_PIN, x) 
....................    #define lcd_rs_tris()  output_drive(LCD_RS_PIN) 
.................... #endif 
....................  
.................... #ifndef LCD_RW_PIN 
....................    #define lcd_output_rw(x) lcdlat.rw=x 
....................    #define lcd_rw_tris()   lcdtris.rw=0 
.................... #else 
....................    #define lcd_output_rw(x) output_bit(LCD_RW_PIN, x) 
....................    #define lcd_rw_tris()  output_drive(LCD_RW_PIN) 
.................... #endif 
....................  
.................... // original version of this library incorrectly labeled LCD_DATA0 as LCD_DATA4, 
.................... // LCD_DATA1 as LCD_DATA5, and so on.  this block of code makes the driver 
.................... // compatible with any code written for the original library 
.................... #if (defined(LCD_DATA0) && defined(LCD_DATA1) && defined(LCD_DATA2) && defined(LCD_DATA3) && !defined(LCD_DATA4) && !defined(LCD_DATA5) && !defined(LCD_DATA6) && !defined(LCD_DATA7)) 
....................    #define  LCD_DATA4    LCD_DATA0 
....................    #define  LCD_DATA5    LCD_DATA1 
....................    #define  LCD_DATA6    LCD_DATA2 
....................    #define  LCD_DATA7    LCD_DATA3 
.................... #endif 
....................  
.................... #ifndef LCD_DATA4 
.................... #ifndef LCD_DATA_PORT 
....................    #if defined(__PCB__) 
....................       #define LCD_DATA_PORT      0x06     //portb 
....................       #define set_tris_lcd(x)   set_tris_b(x) 
....................    #else 
....................      #if defined(PIN_D0) 
....................       #define LCD_DATA_PORT      getenv("SFR:PORTD")     //portd 
....................      #else 
....................       #define LCD_DATA_PORT      getenv("SFR:PORTB")     //portb 
....................      #endif 
....................    #endif    
.................... #endif 
....................  
.................... #if defined(__PCB__) 
....................    LCD_PIN_MAP lcd, lcdlat; 
....................    #byte lcd = LCD_DATA_PORT 
....................    #byte lcdlat = LCD_DATA_PORT 
.................... #elif defined(__PCM__) 
....................    LCD_PIN_MAP lcd, lcdlat, lcdtris; 
....................    #byte lcd = LCD_DATA_PORT 
....................    #byte lcdlat = LCD_DATA_PORT 
....................    #byte lcdtris = LCD_DATA_PORT+0x80 
.................... #elif defined(__PCH__) 
....................    LCD_PIN_MAP lcd, lcdlat, lcdtris; 
....................    #byte lcd = LCD_DATA_PORT 
....................    #byte lcdlat = LCD_DATA_PORT+9 
....................    #byte lcdtris = LCD_DATA_PORT+0x12 
.................... #elif defined(__PCD__) 
....................    LCD_PIN_MAP lcd, lcdlat, lcdtris; 
....................    #word lcd = LCD_DATA_PORT 
....................    #word lcdlat = LCD_DATA_PORT+2 
....................    #word lcdtris = LCD_DATA_PORT-0x02 
.................... #endif 
.................... #endif   //LCD_DATA4 not defined 
....................  
.................... #ifndef LCD_TYPE 
....................    #define LCD_TYPE 2           // 0=5x7, 1=5x10, 2=2 lines 
.................... #endif 
....................  
.................... #ifndef LCD_LINE_TWO 
....................    #define LCD_LINE_TWO 0x40    // LCD RAM address for the second line 
.................... #endif 
....................  
.................... BYTE const LCD_INIT_STRING[4] = {0x20 | (LCD_TYPE << 2), 0xc, 1, 6}; 
....................                              // These bytes need to be sent to the LCD 
....................                              // to start it up. 
....................  
.................... BYTE lcd_read_nibble(void); 
....................  
.................... BYTE lcd_read_byte(void) 
.................... { 
....................    BYTE low,high; 
....................  
....................  #if defined(__PCB__) 
....................    set_tris_lcd(LCD_INPUT_MAP); 
....................  #else 
....................   #if (defined(LCD_DATA4) && defined(LCD_DATA5) && defined(LCD_DATA6) && defined(LCD_DATA7)) 
....................    output_float(LCD_DATA4); 
....................    output_float(LCD_DATA5); 
....................    output_float(LCD_DATA6); 
....................    output_float(LCD_DATA7); 
....................   #else 
....................    lcdtris.data = 0xF; 
*
140E:  MOVLW  0F
1410:  ANDWF  F95,W
1412:  IORLW  F0
1414:  MOVWF  F95
....................   #endif 
....................  #endif 
....................          
....................    lcd_output_rw(1); 
1416:  BSF    F8C.2
....................    delay_cycles(1); 
1418:  NOP   
....................    lcd_output_enable(1); 
141A:  BSF    F8C.0
....................    delay_cycles(1); 
141C:  NOP   
....................    high = lcd_read_nibble(); 
141E:  RCALL  1402
1420:  MOVFF  01,8B
....................        
....................    lcd_output_enable(0); 
1424:  BCF    F8C.0
....................    delay_cycles(1); 
1426:  NOP   
....................    lcd_output_enable(1); 
1428:  BSF    F8C.0
....................    delay_us(1); 
142A:  BRA    142C
142C:  BRA    142E
142E:  NOP   
....................    low = lcd_read_nibble(); 
1430:  RCALL  1402
1432:  MOVFF  01,8A
....................        
....................    lcd_output_enable(0); 
1436:  BCF    F8C.0
....................  
....................  #if defined(__PCB__) 
....................    set_tris_lcd(LCD_INPUT_MAP); 
....................  #else 
....................   #if (defined(LCD_DATA4) && defined(LCD_DATA5) && defined(LCD_DATA6) && defined(LCD_DATA7)) 
....................    output_drive(LCD_DATA4); 
....................    output_drive(LCD_DATA5); 
....................    output_drive(LCD_DATA6); 
....................    output_drive(LCD_DATA7); 
....................   #else 
....................    lcdtris.data = 0x0; 
1438:  MOVLW  0F
143A:  ANDWF  F95,W
143C:  MOVWF  F95
....................   #endif 
....................  #endif 
....................  
....................    return( (high<<4) | low); 
143E:  SWAPF  x8B,W
1440:  MOVWF  00
1442:  MOVLW  F0
1444:  ANDWF  00,F
1446:  MOVF   00,W
1448:  IORWF  x8A,W
144A:  MOVWF  01
.................... } 
144C:  GOTO   1454 (RETURN)
....................  
.................... BYTE lcd_read_nibble(void) 
.................... { 
....................   #if (defined(LCD_DATA4) && defined(LCD_DATA5) && defined(LCD_DATA6) && defined(LCD_DATA7)) 
....................    BYTE n = 0x00; 
....................  
....................    /* Read the data port */ 
....................    n |= input(LCD_DATA4); 
....................    n |= input(LCD_DATA5) << 1; 
....................    n |= input(LCD_DATA6) << 2; 
....................    n |= input(LCD_DATA7) << 3; 
....................     
....................    return(n); 
....................   #else 
....................    return(lcd.data); 
*
1402:  MOVF   F83,W
1404:  MOVWF  00
1406:  SWAPF  00,W
1408:  ANDLW  0F
140A:  MOVWF  01
....................   #endif 
.................... } 
140C:  RETLW  00
....................  
.................... void lcd_send_nibble(BYTE n) 
.................... { 
....................   #if (defined(LCD_DATA4) && defined(LCD_DATA5) && defined(LCD_DATA6) && defined(LCD_DATA7)) 
....................    /* Write to the data port */ 
....................    output_bit(LCD_DATA4, bit_test(n, 0)); 
....................    output_bit(LCD_DATA5, bit_test(n, 1)); 
....................    output_bit(LCD_DATA6, bit_test(n, 2)); 
....................    output_bit(LCD_DATA7, bit_test(n, 3)); 
....................   #else       
....................    lcdlat.data = n; 
*
13E4:  SWAPF  x8B,W
13E6:  ANDLW  F0
13E8:  MOVWF  00
13EA:  MOVLW  0F
13EC:  ANDWF  F8C,W
13EE:  IORWF  00,W
13F0:  MOVWF  F8C
....................   #endif 
....................        
....................    delay_cycles(1); 
13F2:  NOP   
....................    lcd_output_enable(1); 
13F4:  BSF    F8C.0
....................    delay_us(2); 
13F6:  MOVLW  03
13F8:  MOVWF  00
13FA:  DECFSZ 00,F
13FC:  BRA    13FA
....................    lcd_output_enable(0); 
13FE:  BCF    F8C.0
.................... } 
1400:  RETLW  00
....................  
.................... void lcd_send_byte(BYTE address, BYTE n) 
.................... { 
....................    lcd_output_rs(0); 
*
1450:  BCF    F8C.1
....................    while ( bit_test(lcd_read_byte(),7) ) ; 
1452:  BRA    140E
1454:  MOVFF  01,8A
1458:  BTFSC  01.7
145A:  BRA    1452
....................    lcd_output_rs(address); 
145C:  BCF    F8C.1
145E:  BTFSC  x88.0
1460:  BSF    F8C.1
....................    delay_cycles(1); 
1462:  NOP   
....................    lcd_output_rw(0); 
1464:  BCF    F8C.2
....................    delay_cycles(1); 
1466:  NOP   
....................    lcd_output_enable(0); 
1468:  BCF    F8C.0
....................    lcd_send_nibble(n >> 4); 
146A:  SWAPF  x89,W
146C:  MOVWF  x8A
146E:  MOVLW  0F
1470:  ANDWF  x8A,F
1472:  MOVFF  8A,8B
1476:  RCALL  13E4
....................    lcd_send_nibble(n & 0xf); 
1478:  MOVF   x89,W
147A:  ANDLW  0F
147C:  MOVWF  x8A
147E:  MOVWF  x8B
1480:  RCALL  13E4
.................... } 
1482:  RETLW  00
....................  
.................... void lcd_init(void)  
.................... { 
....................    BYTE i; 
....................  
....................  #if defined(__PCB__) 
....................    set_tris_lcd(LCD_OUTPUT_MAP); 
....................  #else 
....................   #if (defined(LCD_DATA4) && defined(LCD_DATA5) && defined(LCD_DATA6) && defined(LCD_DATA7)) 
....................    output_drive(LCD_DATA4); 
....................    output_drive(LCD_DATA5); 
....................    output_drive(LCD_DATA6); 
....................    output_drive(LCD_DATA7); 
....................   #else 
....................    lcdtris.data = 0x0; 
1484:  MOVLW  0F
1486:  ANDWF  F95,W
1488:  MOVWF  F95
....................   #endif 
....................    lcd_enable_tris(); 
148A:  BCF    F95.0
....................    lcd_rs_tris(); 
148C:  BCF    F95.1
....................    lcd_rw_tris(); 
148E:  BCF    F95.2
....................  #endif 
....................  
....................    lcd_output_rs(0); 
1490:  BCF    F8C.1
....................    lcd_output_rw(0); 
1492:  BCF    F8C.2
....................    lcd_output_enable(0); 
1494:  BCF    F8C.0
....................      
....................    delay_ms(15); 
1496:  MOVLW  0F
1498:  MOVWF  x84
149A:  RCALL  13BE
....................    for(i=1;i<=3;++i) 
149C:  MOVLW  01
149E:  MOVWF  x81
14A0:  MOVF   x81,W
14A2:  SUBLW  03
14A4:  BNC   14B6
....................    { 
....................        lcd_send_nibble(3); 
14A6:  MOVLW  03
14A8:  MOVWF  x8B
14AA:  RCALL  13E4
....................        delay_ms(5); 
14AC:  MOVLW  05
14AE:  MOVWF  x84
14B0:  RCALL  13BE
....................    } 
14B2:  INCF   x81,F
14B4:  BRA    14A0
....................      
....................    lcd_send_nibble(2); 
14B6:  MOVLW  02
14B8:  MOVWF  x8B
14BA:  RCALL  13E4
....................    for(i=0;i<=3;++i) 
14BC:  CLRF   x81
14BE:  MOVF   x81,W
14C0:  SUBLW  03
14C2:  BNC   14E2
....................       lcd_send_byte(0,LCD_INIT_STRING[i]); 
14C4:  CLRF   03
14C6:  MOVF   x81,W
14C8:  MOVFF  FF2,82
14CC:  BCF    FF2.7
14CE:  CALL   0096
14D2:  BTFSC  x82.7
14D4:  BSF    FF2.7
14D6:  MOVWF  x82
14D8:  CLRF   x88
14DA:  MOVWF  x89
14DC:  RCALL  1450
14DE:  INCF   x81,F
14E0:  BRA    14BE
.................... } 
14E2:  GOTO   1674 (RETURN)
....................  
.................... void lcd_gotoxy(BYTE x, BYTE y) 
.................... { 
....................    BYTE address; 
....................  
....................    if(y!=1) 
14E6:  DECFSZ x85,W
14E8:  BRA    14EC
14EA:  BRA    14F2
....................       address=LCD_LINE_TWO; 
14EC:  MOVLW  40
14EE:  MOVWF  x86
....................    else 
14F0:  BRA    14F4
....................       address=0; 
14F2:  CLRF   x86
....................       
....................    address+=x-1; 
14F4:  MOVLW  01
14F6:  SUBWF  x84,W
14F8:  ADDWF  x86,F
....................    lcd_send_byte(0,0x80|address); 
14FA:  MOVF   x86,W
14FC:  IORLW  80
14FE:  MOVWF  x87
1500:  CLRF   x88
1502:  MOVWF  x89
1504:  RCALL  1450
.................... } 
1506:  RETLW  00
....................  
.................... void lcd_putc(char c) 
.................... { 
....................    switch (c) 
....................    { 
1508:  MOVF   x83,W
150A:  XORLW  0C
150C:  BZ    1518
150E:  XORLW  06
1510:  BZ    1528
1512:  XORLW  02
1514:  BZ    1534
1516:  BRA    153E
....................       case '\f'   :  lcd_send_byte(0,1); 
1518:  CLRF   x88
151A:  MOVLW  01
151C:  MOVWF  x89
151E:  RCALL  1450
....................                      delay_ms(2); 
1520:  MOVLW  02
1522:  MOVWF  x84
1524:  RCALL  13BE
....................                      break; 
1526:  BRA    154A
....................                       
....................       case '\n'   : lcd_gotoxy(1,2);        break; 
1528:  MOVLW  01
152A:  MOVWF  x84
152C:  MOVLW  02
152E:  MOVWF  x85
1530:  RCALL  14E6
1532:  BRA    154A
....................       
....................       case '\b'   : lcd_send_byte(0,0x10);  break; 
1534:  CLRF   x88
1536:  MOVLW  10
1538:  MOVWF  x89
153A:  RCALL  1450
153C:  BRA    154A
....................       
....................       default     : lcd_send_byte(1,c);     break; 
153E:  MOVLW  01
1540:  MOVWF  x88
1542:  MOVFF  83,89
1546:  RCALL  1450
1548:  BRA    154A
....................    } 
.................... } 
154A:  RETLW  00
....................   
.................... char lcd_getc(BYTE x, BYTE y) 
.................... { 
....................    char value; 
....................  
....................    lcd_gotoxy(x,y); 
....................    while ( bit_test(lcd_read_byte(),7) ); // wait until busy flag is low 
....................    lcd_output_rs(1); 
....................    value = lcd_read_byte(); 
....................    lcd_output_rs(0); 
....................     
....................    return(value); 
.................... } 
....................  
....................  
.................... long int n; 
.................... char a; 
.................... int x=0,e=0,d=0,k=0; 
.................... const char co[]={ 
.................... 108, 
.................... 121, 
.................... 120, 
.................... 110, 
.................... 119, 
.................... 131, 
.................... 135, 
.................... 133, 
.................... 131, 
.................... 140, 
.................... 141, 
.................... 126, 
.................... 123, 
.................... 133, 
.................... 139, 
.................... 131, 
.................... 122, 
.................... 124, 
.................... 131, 
.................... 142, 
.................... 148, 
.................... 145, 
.................... 138, 
.................... 141, 
.................... 140, 
.................... 145, 
.................... 138, 
.................... 123, 
.................... 122, 
.................... 133, 
.................... 133, 
.................... 123, 
.................... 125, 
.................... 123, 
.................... 118, 
.................... 117, 
.................... 129, 
.................... 139, 
.................... 134, 
.................... 135, 
.................... 137, 
.................... 142, 
.................... 147, 
.................... 139, 
.................... 137, 
.................... 135, 
.................... 131, 
.................... 125, 
.................... 126, 
.................... 126, 
.................... 131, 
.................... 127, 
.................... 115, 
.................... 114, 
.................... 115, 
.................... 114, 
.................... 104, 
.................... 96, 
.................... 107, 
.................... 110, 
.................... 111, 
.................... 105, 
.................... 102, 
.................... 116, 
.................... 120, 
.................... 113, 
.................... 115, 
.................... 124, 
.................... 110, 
.................... 100, 
.................... 102, 
.................... 111, 
.................... 114, 
.................... 102, 
.................... 102, 
.................... 110, 
.................... 107, 
.................... 98, 
.................... 90, 
.................... 87, 
.................... 88, 
.................... 85, 
.................... 103, 
.................... 101, 
.................... 99, 
.................... 93, 
.................... 89, 
.................... 70, 
.................... 54, 
.................... 0, 
.................... 10, 
.................... 0, 
.................... 48, 
.................... 229, 
.................... 196, 
.................... 211, 
.................... 75, 
.................... 0, 
.................... 24, 
.................... 0, 
.................... 93, 
.................... 254, 
.................... 247, 
.................... 250, 
.................... 114, 
.................... 32, 
.................... 0, 
.................... 22, 
.................... 115, 
.................... 141, 
.................... 144, 
.................... 106, 
.................... 78, 
.................... 32, 
.................... 25, 
.................... 16, 
.................... 7, 
.................... 42, 
.................... 106, 
.................... 86, 
.................... 97, 
.................... 55, 
.................... 67, 
.................... 47, 
.................... 75, 
.................... 56, 
.................... 17, 
.................... 10, 
.................... 0, 
.................... 59, 
.................... 74, 
.................... 143, 
.................... 158, 
.................... 157, 
.................... 171, 
.................... 139, 
.................... 236, 
.................... 140, 
.................... 70, 
.................... 16, 
.................... 0, 
.................... 17, 
.................... 73, 
.................... 108, 
.................... 39, 
.................... 76, 
.................... 22, 
.................... 67, 
.................... 128, 
.................... 66, 
.................... 57, 
.................... 81, 
.................... 96, 
.................... 121, 
.................... 123, 
.................... 100, 
.................... 129, 
.................... 124, 
.................... 76, 
.................... 92, 
.................... 140, 
.................... 254, 
.................... 254, 
.................... 211, 
.................... 87, 
.................... 11, 
.................... 0, 
.................... 7, 
.................... 0, 
.................... 29, 
.................... 247, 
.................... 211, 
.................... 240, 
.................... 193, 
.................... 45, 
.................... 0, 
.................... 0, 
.................... 23, 
.................... 44, 
.................... 183, 
.................... 254, 
.................... 208, 
.................... 174, 
.................... 34, 
.................... 1, 
.................... 0, 
.................... 65, 
.................... 194, 
.................... 198, 
.................... 254, 
.................... 246, 
.................... 254, 
.................... 251, 
.................... 254, 
.................... 253, 
.................... 254, 
.................... 253, 
.................... 254, 
.................... 251, 
.................... 254, 
.................... 90, 
.................... 46, 
.................... 12, 
.................... 0, 
.................... 7, 
.................... 0, 
.................... 4, 
.................... 0, 
.................... 2, 
.................... 0, 
.................... 0, 
.................... 1, 
.................... 0, 
.................... 6, 
.................... 0, 
.................... 95, 
.................... 241, 
.................... 246, 
.................... 254, 
.................... 250, 
.................... 254, 
.................... 250, 
.................... 254, 
.................... 250, 
.................... 254, 
.................... 248, 
.................... 254, 
.................... 244, 
.................... 254, 
.................... 175, 
.................... 0, 
.................... 7, 
.................... 0, 
.................... 3, 
.................... 0, 
.................... 2, 
.................... 0, 
.................... 2, 
.................... 0, 
.................... 6, 
.................... 19, 
.................... 136, 
.................... 168, 
.................... 37, 
.................... 7, 
.................... 0, 
.................... 3, 
.................... 0, 
.................... 3, 
.................... 0, 
.................... 3, 
.................... 0, 
.................... 38, 
.................... 192, 
.................... 242, 
.................... 254, 
.................... 252, 
.................... 254, 
.................... 252, 
.................... 254, 
.................... 251, 
.................... 254, 
.................... 248, 
.................... 254, 
.................... 242, 
.................... 254, 
.................... 158, 
.................... 0, 
.................... 8, 
.................... 0, 
.................... 1, 
.................... 1, 
.................... 2, 
.................... 13, 
.................... 0, 
.................... 28, 
.................... 10, 
.................... 128, 
.................... 254, 
.................... 253, 
.................... 231, 
.................... 7, 
.................... 0, 
.................... 1, 
.................... 0, 
.................... 2, 
.................... 0, 
.................... 4, 
.................... 0, 
.................... 5, 
.................... 0, 
.................... 10, 
.................... 0, 
.................... 125, 
.................... 254, 
.................... 244, 
.................... 254, 
.................... 249, 
.................... 254, 
.................... 250, 
.................... 254, 
.................... 249, 
.................... 254, 
.................... 248, 
.................... 254, 
.................... 228, 
.................... 15, 
.................... 0, 
.................... 5, 
.................... 0, 
.................... 6, 
.................... 0, 
.................... 13, 
.................... 0, 
.................... 18, 
.................... 0, 
.................... 120, 
.................... 254, 
.................... 251, 
.................... 251, 
.................... 254, 
.................... 198, 
.................... 0, 
.................... 4, 
.................... 0, 
.................... 1, 
.................... 0, 
.................... 0, 
.................... 2, 
.................... 0, 
.................... 3, 
.................... 0, 
.................... 107, 
.................... 244, 
.................... 254, 
.................... 252, 
.................... 254, 
.................... 252, 
.................... 254, 
.................... 250, 
.................... 254, 
.................... 248, 
.................... 254, 
.................... 241, 
.................... 254, 
.................... 113, 
.................... 0, 
.................... 8, 
.................... 0, 
.................... 1, 
.................... 2, 
.................... 11, 
.................... 26, 
.................... 240, 
.................... 254, 
.................... 249, 
.................... 254, 
.................... 248, 
.................... 254, 
.................... 242, 
.................... 254, 
.................... 101, 
.................... 0, 
.................... 12, 
.................... 0, 
.................... 8, 
.................... 0, 
.................... 11, 
.................... 0, 
.................... 154, 
.................... 254, 
.................... 245, 
.................... 254, 
.................... 250, 
.................... 254, 
.................... 252, 
.................... 254, 
.................... 254, 
.................... 254, 
.................... 254, 
.................... 254, 
.................... 254, 
.................... 253, 
.................... 254, 
.................... 226, 
.................... 21, 
.................... 0, 
.................... 0, 
.................... 2, 
.................... 0, 
.................... 6, 
.................... 0, 
.................... 65, 
.................... 254, 
.................... 249, 
.................... 254, 
.................... 250, 
.................... 254, 
.................... 248, 
.................... 254, 
.................... 67, 
.................... 0, 
.................... 6, 
.................... 0, 
.................... 1, 
.................... 1, 
.................... 0, 
.................... 7, 
.................... 0, 
.................... 66, 
.................... 254, 
.................... 247, 
.................... 254, 
.................... 251, 
.................... 254, 
.................... 252, 
.................... 254, 
.................... 251, 
.................... 254, 
.................... 250, 
.................... 254, 
.................... 246, 
.................... 254, 
.................... 229, 
.................... 148, 
.................... 41, 
.................... 0, 
.................... 2, 
.................... 3, 
.................... 0, 
.................... 37, 
.................... 249, 
.................... 253, 
.................... 254, 
.................... 254, 
.................... 253, 
.................... 254, 
.................... 253, 
.................... 254, 
.................... 248, 
.................... 36, 
.................... 0, 
.................... 6, 
.................... 0, 
.................... 3, 
.................... 0, 
.................... 2, 
.................... 4, 
.................... 216, 
.................... 254, 
.................... 251, 
.................... 254, 
.................... 252, 
.................... 254, 
.................... 253, 
.................... 254, 
.................... 254, 
.................... 253, 
.................... 254, 
.................... 252, 
.................... 254, 
.................... 249, 
.................... 254, 
.................... 217, 
.................... 3, 
.................... 0, 
.................... 1, 
.................... 0, 
.................... 4, 
.................... 0, 
.................... 207, 
.................... 254, 
.................... 249, 
.................... 254, 
.................... 254, 
.................... 252, 
.................... 254, 
.................... 245, 
.................... 254, 
.................... 105, 
.................... 0, 
.................... 13, 
.................... 0, 
.................... 8, 
.................... 0, 
.................... 8, 
.................... 0, 
.................... 199, 
.................... 254, 
.................... 246, 
.................... 254, 
.................... 250, 
.................... 254, 
.................... 252, 
.................... 254, 
.................... 253, 
.................... 254, 
.................... 254, 
.................... 253, 
.................... 254, 
.................... 251, 
.................... 254, 
.................... 229, 
.................... 12, 
.................... 0, 
.................... 3, 
.................... 0, 
.................... 6, 
.................... 0, 
.................... 208, 
.................... 254, 
.................... 250, 
.................... 254, 
.................... 254, 
.................... 250, 
.................... 254, 
.................... 243, 
.................... 254, 
.................... 151, 
.................... 0, 
.................... 10, 
.................... 0, 
.................... 4, 
.................... 0, 
.................... 2, 
.................... 3, 
.................... 218, 
.................... 254, 
.................... 248, 
.................... 254, 
.................... 250, 
.................... 254, 
.................... 251, 
.................... 254, 
.................... 251, 
.................... 254, 
.................... 251, 
.................... 254, 
.................... 250, 
.................... 254, 
.................... 245, 
.................... 254, 
.................... 85, 
.................... 0, 
.................... 14, 
.................... 0, 
.................... 14, 
.................... 0, 
.................... 178, 
.................... 254, 
.................... 248, 
.................... 254, 
.................... 254, 
.................... 250, 
.................... 254, 
.................... 242, 
.................... 254, 
.................... 151, 
.................... 0, 
.................... 8, 
.................... 0, 
.................... 0, 
.................... 3, 
.................... 0, 
.................... 38, 
.................... 251, 
.................... 254, 
.................... 254, 
.................... 254, 
.................... 253, 
.................... 254, 
.................... 252, 
.................... 254, 
.................... 252, 
.................... 254, 
.................... 251, 
.................... 254, 
.................... 249, 
.................... 254, 
.................... 244, 
.................... 254, 
.................... 95, 
.................... 0, 
.................... 16, 
.................... 0, 
.................... 17, 
.................... 0, 
.................... 169, 
.................... 254, 
.................... 247, 
.................... 254, 
.................... 253, 
.................... 254, 
.................... 254, 
.................... 251, 
.................... 254, 
.................... 230, 
.................... 12, 
.................... 0, 
.................... 2, 
.................... 0, 
.................... 0, 
.................... 2, 
.................... 0, 
.................... 194, 
.................... 254, 
.................... 244, 
.................... 254, 
.................... 248, 
.................... 254, 
.................... 249, 
.................... 254, 
.................... 250, 
.................... 254, 
.................... 249, 
.................... 254, 
.................... 248, 
.................... 254, 
.................... 242, 
.................... 254, 
.................... 92, 
.................... 0, 
.................... 9, 
.................... 0, 
.................... 1, 
.................... 13, 
.................... 240, 
.................... 254, 
.................... 254, 
.................... 252, 
.................... 254, 
.................... 251, 
.................... 254, 
.................... 247, 
.................... 254, 
.................... 215, 
.................... 7, 
.................... 0, 
.................... 6, 
.................... 0, 
.................... 13, 
.................... 0, 
.................... 107, 
.................... 254, 
.................... 245, 
.................... 254, 
.................... 251, 
.................... 254, 
.................... 253, 
.................... 254, 
.................... 250, 
.................... 254, 
.................... 254, 
.................... 254, 
.................... 253, 
.................... 254, 
.................... 252, 
.................... 254, 
.................... 248, 
.................... 254, 
.................... 86, 
.................... 0, 
.................... 9, 
.................... 0, 
.................... 4, 
.................... 41, 
.................... 228, 
.................... 254, 
.................... 254, 
.................... 253, 
.................... 254, 
.................... 249, 
.................... 254, 
.................... 241, 
.................... 254, 
.................... 129, 
.................... 0, 
.................... 8, 
.................... 0, 
.................... 0, 
.................... 5, 
.................... 0, 
.................... 59, 
.................... 254, 
.................... 248, 
.................... 254, 
.................... 252, 
.................... 254, 
.................... 253, 
.................... 254, 
.................... 253, 
.................... 254, 
.................... 252, 
.................... 254, 
.................... 251, 
.................... 254, 
.................... 247, 
.................... 254, 
.................... 190, 
.................... 0, 
.................... 9, 
.................... 0, 
.................... 12, 
.................... 0, 
.................... 121, 
.................... 254, 
.................... 240, 
.................... 254, 
.................... 245, 
.................... 254, 
.................... 246, 
.................... 254, 
.................... 245, 
.................... 254, 
.................... 213, 
.................... 1, 
.................... 1, 
.................... 0, 
.................... 3, 
.................... 0, 
.................... 8, 
.................... 0, 
.................... 167, 
.................... 254, 
.................... 237, 
.................... 254, 
.................... 247, 
.................... 254, 
.................... 253, 
.................... 229, 
.................... 239, 
.................... 254, 
.................... 246, 
.................... 254, 
.................... 246, 
.................... 254, 
.................... 241, 
.................... 254, 
.................... 118, 
.................... 0, 
.................... 15, 
.................... 0, 
.................... 13, 
.................... 0, 
.................... 163, 
.................... 254, 
.................... 242, 
.................... 254, 
.................... 246, 
.................... 254, 
.................... 246, 
.................... 254, 
.................... 243, 
.................... 254, 
.................... 194, 
.................... 0, 
.................... 5, 
.................... 0, 
.................... 3, 
.................... 0, 
.................... 4, 
.................... 0, 
.................... 8, 
.................... 0, 
.................... 83, 
.................... 254, 
.................... 244, 
.................... 254, 
.................... 251, 
.................... 99, 
.................... 171, 
.................... 249, 
.................... 244, 
.................... 254, 
.................... 242, 
.................... 254, 
.................... 238, 
.................... 254, 
.................... 177, 
.................... 0, 
.................... 0, 
.................... 4, 
.................... 0, 
.................... 10, 
.................... 0, 
.................... 60, 
.................... 254, 
.................... 226, 
.................... 251, 
.................... 254, 
.................... 249, 
.................... 254, 
.................... 245, 
.................... 254, 
.................... 212, 
.................... 3, 
.................... 0, 
.................... 2, 
.................... 0, 
.................... 3, 
.................... 0, 
.................... 4, 
.................... 0, 
.................... 6, 
.................... 0, 
.................... 207, 
.................... 254, 
.................... 247, 
.................... 254, 
.................... 77, 
.................... 0, 
.................... 93, 
.................... 254, 
.................... 248, 
.................... 254, 
.................... 249, 
.................... 254, 
.................... 244, 
.................... 254, 
.................... 94, 
.................... 0, 
.................... 10, 
.................... 0, 
.................... 1, 
.................... 3, 
.................... 0, 
.................... 165, 
.................... 254, 
.................... 246, 
.................... 254, 
.................... 254, 
.................... 252, 
.................... 254, 
.................... 244, 
.................... 174, 
.................... 123, 
.................... 0, 
.................... 7, 
.................... 0, 
.................... 0, 
.................... 6, 
.................... 0, 
.................... 18, 
.................... 0, 
.................... 187, 
.................... 103, 
.................... 172, 
.................... 254, 
.................... 246, 
.................... 222, 
.................... 0, 
.................... 0, 
.................... 166, 
.................... 254, 
.................... 237, 
.................... 254, 
.................... 242, 
.................... 254, 
.................... 239, 
.................... 254, 
.................... 91, 
.................... 0, 
.................... 9, 
.................... 0, 
.................... 4, 
.................... 0, 
.................... 66, 
.................... 187, 
.................... 254, 
.................... 252, 
.................... 253, 
.................... 254, 
.................... 249, 
.................... 254, 
.................... 246, 
.................... 191, 
.................... 132, 
.................... 0, 
.................... 0, 
.................... 6, 
.................... 0, 
.................... 14, 
.................... 0, 
.................... 26, 
.................... 0, 
.................... 184, 
.................... 178, 
.................... 131, 
.................... 254, 
.................... 234, 
.................... 225, 
.................... 8, 
.................... 0, 
.................... 117, 
.................... 254, 
.................... 239, 
.................... 254, 
.................... 244, 
.................... 254, 
.................... 242, 
.................... 254, 
.................... 181, 
.................... 0, 
.................... 8, 
.................... 0, 
.................... 5, 
.................... 0, 
.................... 31, 
.................... 117, 
.................... 243, 
.................... 254, 
.................... 248, 
.................... 254, 
.................... 248, 
.................... 254, 
.................... 250, 
.................... 240, 
.................... 161, 
.................... 10, 
.................... 0, 
.................... 9, 
.................... 0, 
.................... 8, 
.................... 0, 
.................... 31, 
.................... 0, 
.................... 26, 
.................... 194, 
.................... 99, 
.................... 238, 
.................... 254, 
.................... 226, 
.................... 22, 
.................... 0, 
.................... 0, 
.................... 172, 
.................... 254, 
.................... 235, 
.................... 254, 
.................... 240, 
.................... 254, 
.................... 238, 
.................... 254, 
.................... 114, 
.................... 0, 
.................... 15, 
.................... 0, 
.................... 15, 
.................... 0, 
.................... 87, 
.................... 254, 
.................... 246, 
.................... 254, 
.................... 249, 
.................... 254, 
.................... 248, 
.................... 254, 
.................... 243, 
.................... 254, 
.................... 99, 
.................... 0, 
.................... 6, 
.................... 0, 
.................... 0, 
.................... 7, 
.................... 0, 
.................... 16, 
.................... 0, 
.................... 69, 
.................... 174, 
.................... 179, 
.................... 254, 
.................... 183, 
.................... 108, 
.................... 4, 
.................... 0, 
.................... 58, 
.................... 254, 
.................... 254, 
.................... 252, 
.................... 254, 
.................... 248, 
.................... 254, 
.................... 241, 
.................... 254, 
.................... 95, 
.................... 0, 
.................... 11, 
.................... 0, 
.................... 8, 
.................... 0, 
.................... 209, 
.................... 254, 
.................... 248, 
.................... 254, 
.................... 251, 
.................... 254, 
.................... 251, 
.................... 254, 
.................... 250, 
.................... 254, 
.................... 48, 
.................... 0, 
.................... 8, 
.................... 0, 
.................... 5, 
.................... 0, 
.................... 8, 
.................... 0, 
.................... 10, 
.................... 0, 
.................... 177, 
.................... 254, 
.................... 253, 
.................... 219, 
.................... 0, 
.................... 16, 
.................... 0, 
.................... 97, 
.................... 254, 
.................... 249, 
.................... 254, 
.................... 254, 
.................... 251, 
.................... 254, 
.................... 246, 
.................... 254, 
.................... 217, 
.................... 13, 
.................... 0, 
.................... 10, 
.................... 0, 
.................... 23, 
.................... 69, 
.................... 72, 
.................... 254, 
.................... 250, 
.................... 254, 
.................... 254, 
.................... 253, 
.................... 254, 
.................... 251, 
.................... 254, 
.................... 46, 
.................... 0, 
.................... 8, 
.................... 0, 
.................... 7, 
.................... 0, 
.................... 8, 
.................... 0, 
.................... 13, 
.................... 0, 
.................... 88, 
.................... 251, 
.................... 254, 
.................... 151, 
.................... 0, 
.................... 13, 
.................... 0, 
.................... 12, 
.................... 218, 
.................... 254, 
.................... 248, 
.................... 254, 
.................... 252, 
.................... 253, 
.................... 254, 
.................... 245, 
.................... 254, 
.................... 118, 
.................... 0, 
.................... 8, 
.................... 0, 
.................... 0, 
.................... 92, 
.................... 19, 
.................... 43, 
.................... 116, 
.................... 215, 
.................... 254, 
.................... 235, 
.................... 254, 
.................... 234, 
.................... 254, 
.................... 127, 
.................... 0, 
.................... 10, 
.................... 0, 
.................... 5, 
.................... 0, 
.................... 4, 
.................... 0, 
.................... 4, 
.................... 0, 
.................... 3, 
.................... 190, 
.................... 254, 
.................... 191, 
.................... 8, 
.................... 0, 
.................... 12, 
.................... 0, 
.................... 107, 
.................... 254, 
.................... 245, 
.................... 254, 
.................... 248, 
.................... 254, 
.................... 248, 
.................... 254, 
.................... 243, 
.................... 254, 
.................... 194, 
.................... 0, 
.................... 2, 
.................... 1, 
.................... 0, 
.................... 4, 
.................... 0, 
.................... 7, 
.................... 0, 
.................... 41, 
.................... 253, 
.................... 251, 
.................... 254, 
.................... 247, 
.................... 254, 
.................... 87, 
.................... 0, 
.................... 13, 
.................... 0, 
.................... 7, 
.................... 0, 
.................... 5, 
.................... 0, 
.................... 3, 
.................... 0, 
.................... 2, 
.................... 0, 
.................... 10, 
.................... 0, 
.................... 4, 
.................... 0, 
.................... 5, 
.................... 0, 
.................... 30, 
.................... 214, 
.................... 254, 
.................... 250, 
.................... 254, 
.................... 249, 
.................... 254, 
.................... 247, 
.................... 254, 
.................... 241, 
.................... 254, 
.................... 172, 
.................... 0, 
.................... 8, 
.................... 0, 
.................... 4, 
.................... 0, 
.................... 4, 
.................... 0, 
.................... 6, 
.................... 0, 
.................... 202, 
.................... 254, 
.................... 254, 
.................... 224, 
.................... 1, 
.................... 6, 
.................... 0, 
.................... 108, 
.................... 254, 
.................... 150, 
.................... 0, 
.................... 7, 
.................... 0, 
.................... 17, 
.................... 29, 
.................... 0, 
.................... 3, 
.................... 0, 
.................... 1, 
.................... 0, 
.................... 1, 
.................... 0, 
.................... 0, 
.................... 0, 
.................... 0, 
.................... 0, 
.................... 0, 
.................... 1, 
.................... 0, 
.................... 1, 
.................... 0, 
.................... 1, 
.................... 0, 
.................... 40, 
.................... 217, 
.................... 254, 
.................... 254, 
.................... 249, 
.................... 254, 
.................... 189, 
.................... 65, 
.................... 173, 
.................... 254, 
.................... 245, 
.................... 254, 
.................... 178, 
.................... 0, 
.................... 8, 
.................... 0, 
.................... 108, 
.................... 132, 
.................... 9, 
.................... 0, 
.................... 0, 
.................... 1, 
.................... 0, 
.................... 1, 
.................... 0, 
.................... 0, 
.................... 0, 
.................... 0, 
.................... 0, 
.................... 0, 
.................... 0, 
.................... 0, 
.................... 0, 
.................... 0, 
.................... 0, 
.................... 0, 
.................... 0, 
.................... 0, 
.................... 0, 
.................... 0, 
.................... 0, 
.................... 0, 
.................... 0, 
.................... 0, 
.................... 0, 
.................... 0, 
.................... 0, 
.................... 1, 
.................... 0, 
.................... 2, 
.................... 0, 
.................... 51, 
.................... 175, 
.................... 241, 
.................... 254, 
.................... 246, 
.................... 254, 
.................... 181, 
.................... 181, 
.................... 254, 
.................... 254, 
.................... 247, 
.................... 254, 
.................... 184, 
.................... 0, 
.................... 6, 
.................... 0, 
.................... 3, 
.................... 0, 
.................... 2, 
.................... 0, 
.................... 2, 
.................... 0, 
.................... 2, 
.................... 0, 
.................... 2, 
.................... 0, 
.................... 3, 
.................... 0, 
.................... 9, 
.................... 215, 
.................... 254, 
.................... 165, 
.................... 10, 
.................... 0, 
.................... 3, 
.................... 0, 
.................... 2, 
.................... 0, 
.................... 1, 
.................... 0, 
.................... 0, 
.................... 0, 
.................... 0, 
.................... 1, 
.................... 0, 
.................... 3, 
.................... 0, 
.................... 5, 
.................... 0, 
.................... 94, 
.................... 254, 
.................... 245, 
.................... 254, 
.................... 247, 
.................... 254, 
.................... 243, 
.................... 254, 
.................... 159, 
.................... 0, 
.................... 16, 
.................... 0, 
.................... 52, 
.................... 14, 
.................... 0, 
.................... 1, 
.................... 0, 
.................... 0, 
.................... 26, 
.................... 254, 
.................... 184, 
.................... 0, 
.................... 47, 
.................... 172, 
.................... 254, 
.................... 236, 
.................... 25, 
.................... 0, 
.................... 6, 
.................... 0, 
.................... 4, 
.................... 0, 
.................... 3, 
.................... 0, 
.................... 2, 
.................... 0, 
.................... 2, 
.................... 0, 
.................... 2, 
.................... 0, 
.................... 2, 
.................... 0, 
.................... 3, 
.................... 0, 
.................... 4, 
.................... 0, 
.................... 10, 
.................... 0, 
.................... 136, 
.................... 254, 
.................... 239, 
.................... 254, 
.................... 243, 
.................... 254, 
.................... 238, 
.................... 254, 
.................... 127, 
.................... 0, 
.................... 10, 
.................... 0, 
.................... 4, 
.................... 0, 
.................... 1, 
.................... 0, 
.................... 0, 
.................... 13, 
.................... 235, 
.................... 254, 
.................... 254, 
.................... 251, 
.................... 243, 
.................... 247, 
.................... 254, 
.................... 200, 
.................... 0, 
.................... 5, 
.................... 0, 
.................... 2, 
.................... 0, 
.................... 0, 
.................... 0, 
.................... 0, 
.................... 1, 
.................... 0, 
.................... 1, 
.................... 0, 
.................... 1, 
.................... 0, 
.................... 2, 
.................... 0, 
.................... 4, 
.................... 0, 
.................... 9, 
.................... 0, 
.................... 128, 
.................... 254, 
.................... 243, 
.................... 254, 
.................... 249, 
.................... 254, 
.................... 252, 
.................... 254, 
.................... 253, 
.................... 43, 
.................... 0, 
.................... 7, 
.................... 0, 
.................... 2, 
.................... 0, 
.................... 0, 
.................... 7, 
.................... 0, 
.................... 135, 
.................... 254, 
.................... 238, 
.................... 254, 
.................... 243, 
.................... 254, 
.................... 242, 
.................... 254, 
.................... 196, 
.................... 0, 
.................... 2, 
.................... 0, 
.................... 0, 
.................... 1, 
.................... 0, 
.................... 2, 
.................... 0, 
.................... 2, 
.................... 0, 
.................... 3, 
.................... 0, 
.................... 5, 
.................... 0, 
.................... 8, 
.................... 0, 
.................... 30, 
.................... 0, 
.................... 46, 
.................... 254, 
.................... 247, 
.................... 254, 
.................... 249, 
.................... 254, 
.................... 247, 
.................... 254, 
.................... 241, 
.................... 254, 
.................... 145, 
.................... 0, 
.................... 11, 
.................... 0, 
.................... 5, 
.................... 0, 
.................... 4, 
.................... 0, 
.................... 6, 
.................... 0, 
.................... 204, 
.................... 254, 
.................... 237, 
.................... 254, 
.................... 246, 
.................... 254, 
.................... 247, 
.................... 254, 
.................... 169, 
.................... 43, 
.................... 0, 
.................... 9, 
.................... 14, 
.................... 0, 
.................... 2, 
.................... 0, 
.................... 2, 
.................... 0, 
.................... 2, 
.................... 0, 
.................... 6, 
.................... 63, 
.................... 7, 
.................... 0, 
.................... 3, 
.................... 0, 
.................... 2, 
.................... 0, 
.................... 0, 
.................... 54, 
.................... 205, 
.................... 254, 
.................... 253, 
.................... 254, 
.................... 254, 
.................... 253, 
.................... 254, 
.................... 253, 
.................... 254, 
.................... 241, 
.................... 19, 
.................... 0, 
.................... 0, 
.................... 3, 
.................... 0, 
.................... 6, 
.................... 0, 
.................... 22, 
.................... 158, 
.................... 92, 
.................... 145, 
.................... 176, 
.................... 212, 
.................... 120, 
.................... 236, 
.................... 82, 
.................... 45, 
.................... 49, 
.................... 58, 
.................... 158, 
.................... 90, 
.................... 56, 
.................... 0, 
.................... 10, 
.................... 0, 
.................... 5, 
.................... 0, 
.................... 3, 
.................... 0, 
.................... 1, 
.................... 0, 
.................... 0, 
.................... 0, 
.................... 0, 
.................... 0, 
.................... 0, 
.................... 0, 
.................... 0, 
.................... 0, 
.................... 0, 
.................... 0, 
.................... 0, 
.................... 0, 
.................... 0, 
.................... 0, 
.................... 0, 
.................... 0, 
.................... 0, 
.................... 1, 
.................... 0, 
.................... 1, 
.................... 0, 
.................... 1, 
.................... 0, 
.................... 5, 
.................... 37, 
.................... 35, 
.................... 46, 
.................... 14, 
.................... 0, 
.................... 2, 
.................... 0, 
.................... 1, 
.................... 0, 
.................... 1, 
.................... 0, 
.................... 1, 
.................... 0, 
.................... 0, 
.................... 0, 
.................... 0, 
.................... 0, 
.................... 0, 
.................... 0, 
.................... 0, 
.................... 0, 
.................... 0, 
.................... 0, 
.................... 0, 
.................... 0, 
.................... 0, 
.................... 0, 
.................... 0, 
.................... 0, 
.................... 0, 
.................... 0, 
.................... 0, 
.................... 0, 
.................... 0, 
.................... 0, 
.................... 0, 
.................... 0, 
.................... 0, 
.................... 0, 
.................... 0, 
.................... 0, 
.................... 0, 
.................... 0, 
.................... 0, 
.................... 0, 
.................... 0, 
.................... 0, 
.................... 0, 
.................... 0, 
.................... 0, 
.................... 0, 
.................... 0, 
.................... 0, 
.................... 0, 
.................... 0, 
.................... 0, 
.................... 0, 
.................... 0, 
.................... 0, 
.................... 0, 
.................... 0, 
.................... 0, 
.................... 0, 
.................... 0, 
.................... 0, 
.................... 0, 
.................... 0, 
.................... 0, 
.................... 0, 
.................... 0, 
.................... 0, 
.................... 0, 
.................... 0, 
.................... 0, 
.................... 0, 
.................... 0, 
.................... 0, 
.................... 0, 
.................... 0, 
.................... 0, 
.................... 0, 
.................... 0, 
.................... 0, 
.................... 0, 
.................... 0, 
.................... 0, 
.................... 0, 
.................... 0, 
.................... 0, 
.................... 0, 
.................... 0, 
.................... 0, 
.................... 0, 
.................... 0, 
.................... 0, 
.................... 0, 
.................... 0, 
.................... 0, 
.................... 0, 
.................... 0, 
.................... 0, 
.................... 0, 
.................... 0, 
.................... 0, 
.................... 0, 
.................... 0, 
.................... 0, 
.................... 0, 
.................... 0, 
.................... 0, 
.................... 0, 
.................... 0, 
.................... 0, 
.................... 0, 
.................... 0, 
.................... 0, 
.................... 0, 
.................... 0, 
.................... 0, 
.................... 0, 
.................... 0, 
.................... 0, 
.................... 0, 
.................... 0, 
.................... 0, 
.................... 0, 
.................... 0, 
.................... 0, 
.................... 0, 
.................... 0, 
.................... 0, 
.................... 0, 
.................... 0, 
.................... 0, 
.................... 0, 
.................... 0, 
.................... 0, 
.................... 0, 
.................... 0, 
.................... 0, 
.................... 0, 
.................... 0, 
.................... 0, 
.................... 0, 
.................... 0, 
.................... 0, 
.................... 0, 
.................... 0, 
.................... 0, 
.................... 0, 
.................... 0, 
.................... 0, 
.................... 0, 
.................... 0, 
.................... 0, 
.................... 0, 
.................... 0, 
.................... 0, 
.................... 0, 
.................... 0, 
.................... 0, 
.................... 0, 
.................... 0, 
.................... 0, 
.................... 0, 
.................... 0, 
.................... 0, 
.................... 0, 
.................... 0, 
.................... 0, 
.................... 0, 
.................... 0, 
.................... 0, 
.................... 0, 
.................... 0, 
.................... 0, 
.................... 0, 
.................... 0, 
.................... 0, 
.................... 0, 
.................... 0, 
.................... 0, 
.................... 0, 
.................... 0, 
.................... 0, 
.................... 0, 
.................... 0, 
.................... 0, 
.................... 0, 
.................... 0, 
.................... 0, 
.................... 0, 
.................... 0, 
.................... 0, 
.................... 0, 
.................... 0, 
.................... 0, 
.................... 0, 
.................... 0, 
.................... 0, 
.................... 0, 
.................... 0, 
.................... 0, 
.................... 0, 
.................... 0, 
.................... 0, 
.................... 0, 
.................... 0, 
.................... 0, 
.................... 0, 
.................... 0, 
.................... 0, 
.................... 0, 
.................... 0, 
.................... 0, 
.................... 0, 
.................... 0, 
.................... 0, 
.................... 0, 
.................... 0, 
.................... 0, 
.................... 0, 
.................... 0, 
.................... 0, 
.................... 0, 
.................... 0, 
.................... 0, 
.................... 0, 
.................... 0, 
.................... 0, 
.................... 0, 
.................... 0, 
.................... 0, 
.................... 0, 
.................... 0, 
.................... 0, 
.................... 0, 
.................... 0, 
.................... 0, 
.................... 0, 
.................... 0, 
.................... 0, 
.................... 0, 
.................... 0, 
.................... 0, 
.................... 0, 
.................... 0, 
.................... 0, 
.................... 0, 
.................... 0, 
.................... 0, 
.................... 0, 
.................... 0, 
.................... 0, 
.................... 0, 
.................... 0, 
.................... 0, 
.................... 0, 
.................... 0, 
.................... 0, 
.................... 0, 
.................... 0, 
.................... 0, 
.................... 0, 
.................... 0, 
.................... 0, 
.................... 0, 
.................... 0, 
.................... 0, 
.................... 0, 
.................... 0, 
.................... 0, 
.................... 0, 
.................... 0, 
.................... 0, 
.................... 0, 
.................... 0, 
.................... 0, 
.................... 0, 
.................... 0, 
.................... 0, 
.................... 0, 
.................... 0, 
.................... 0, 
.................... 0, 
.................... 0, 
.................... 0, 
.................... 0, 
.................... 0, 
.................... 0, 
.................... 0, 
.................... 0, 
.................... 0, 
.................... 0, 
.................... 0, 
.................... 0, 
.................... 0, 
.................... 0, 
.................... 0, 
.................... 0, 
.................... 0, 
.................... 0, 
.................... 0, 
.................... 0, 
.................... 0, 
.................... 0, 
.................... 0, 
.................... 0, 
.................... 0, 
.................... 0, 
.................... 0, 
.................... 0, 
.................... 0, 
.................... 0, 
.................... 0, 
.................... 0, 
.................... 0, 
.................... 0, 
.................... 0, 
.................... 0, 
.................... 0, 
.................... 0, 
.................... 0, 
.................... 0, 
.................... 0, 
.................... 0, 
.................... 0, 
.................... 0, 
.................... 0, 
.................... 0, 
.................... 0, 
.................... 0, 
.................... 0, 
.................... 0, 
.................... 0, 
.................... 0, 
.................... 0, 
.................... 0, 
.................... 0, 
.................... 0, 
.................... 0, 
.................... 0, 
.................... 0, 
.................... 0, 
.................... 0, 
.................... 0, 
.................... 0, 
.................... 0, 
.................... 0, 
.................... 0, 
.................... 0, 
.................... 0, 
.................... 0, 
.................... 0, 
.................... 0, 
.................... 0, 
.................... 0, 
.................... 0, 
.................... 0, 
.................... 0, 
.................... 0, 
.................... 0, 
.................... 0, 
.................... 0, 
.................... 0, 
.................... 0, 
.................... 0, 
.................... 0, 
.................... 0, 
.................... 0, 
.................... 0, 
.................... 0, 
.................... 0, 
.................... 0, 
.................... 0, 
.................... 0, 
.................... 0, 
.................... 0, 
.................... 0, 
.................... 0, 
.................... 0, 
.................... 0, 
.................... 0, 
.................... 0, 
.................... 0, 
.................... 0, 
.................... 0, 
.................... 0, 
.................... 0, 
.................... 0, 
.................... 0, 
.................... 0, 
.................... 0, 
.................... 0, 
.................... 0, 
.................... 0, 
.................... 0, 
.................... 0, 
.................... 0, 
.................... 0, 
.................... 0, 
.................... 0, 
.................... 0, 
.................... 0, 
.................... 1, 
.................... 0, 
.................... 2, 
.................... 6, 
.................... 0, 
.................... 1, 
.................... 0, 
.................... 0, 
.................... 0, 
.................... 0, 
.................... 0, 
.................... 0, 
.................... 0, 
.................... 0, 
.................... 0, 
.................... 0, 
.................... 0, 
.................... 0, 
.................... 0, 
.................... 0, 
.................... 0, 
.................... 0, 
.................... 0, 
.................... 0, 
.................... 0, 
.................... 0, 
.................... 0, 
.................... 0, 
.................... 0, 
.................... 0, 
.................... 0, 
.................... 0, 
.................... 0, 
.................... 0, 
.................... 0, 
.................... 0, 
.................... 0, 
.................... 0, 
.................... 0, 
.................... 0, 
.................... 0, 
.................... 0, 
.................... 0, 
.................... 0, 
.................... 0, 
.................... 0, 
.................... 0, 
.................... 0, 
.................... 0, 
.................... 0, 
.................... 0, 
.................... 0, 
.................... 0, 
.................... 0, 
.................... 0, 
.................... 0, 
.................... 0, 
.................... 0, 
.................... 0, 
.................... 0, 
.................... 0, 
.................... 0, 
.................... 0, 
.................... 0, 
.................... 0, 
.................... 0, 
.................... 0, 
.................... 0, 
.................... 0, 
.................... 0, 
.................... 0, 
.................... 0, 
.................... 0, 
.................... 0, 
.................... 0, 
.................... 0, 
.................... 0, 
.................... 0, 
.................... 0, 
.................... 0, 
.................... 0, 
.................... 0, 
.................... 0, 
.................... 0, 
.................... 0, 
.................... 0, 
.................... 0, 
.................... 0, 
.................... 0, 
.................... 0, 
.................... 0, 
.................... 0, 
.................... 0, 
.................... 0, 
.................... 0, 
.................... 0, 
.................... 0, 
.................... 0, 
.................... 0, 
.................... 0, 
.................... 0, 
.................... 0, 
.................... 0, 
.................... 0, 
.................... 0, 
.................... 0, 
.................... 0, 
.................... 0, 
.................... 0, 
.................... 0, 
.................... 0, 
.................... 0, 
.................... 0, 
.................... 0, 
.................... 0, 
.................... 0, 
.................... 0, 
.................... 0, 
.................... 0, 
.................... 0, 
.................... 0, 
.................... 0, 
.................... 0, 
.................... 0, 
.................... 0, 
.................... 0, 
.................... 0, 
.................... 0, 
.................... 0, 
.................... 0, 
.................... 0, 
.................... 0, 
.................... 0, 
.................... 0, 
.................... 0, 
.................... 0, 
.................... 0, 
.................... 0, 
.................... 0, 
.................... 0, 
.................... 0, 
.................... 0, 
.................... 0, 
.................... 0, 
.................... 0, 
.................... 0, 
.................... 0, 
.................... 0, 
.................... 0, 
.................... 0, 
.................... 0, 
.................... 0, 
.................... 0, 
.................... 0, 
.................... 0, 
.................... 0, 
.................... 0, 
.................... 0, 
.................... 0, 
.................... 0, 
.................... 0, 
.................... 0, 
.................... 0, 
.................... 0, 
.................... 0, 
.................... 0, 
.................... 0, 
.................... 0, 
.................... 0, 
.................... 0, 
.................... 0, 
.................... 0, 
.................... 0, 
.................... 0, 
.................... 0, 
.................... 0, 
.................... 0, 
.................... 0, 
.................... 0, 
.................... 0, 
.................... 0, 
.................... 0, 
.................... 0, 
.................... 0, 
.................... 0, 
.................... 0, 
.................... 2, 
.................... 20, 
.................... 4, 
.................... 0, 
.................... 1, 
.................... 0, 
.................... 1, 
.................... 0, 
.................... 0, 
.................... 0, 
.................... 0, 
.................... 0, 
.................... 0, 
.................... 0, 
.................... 0, 
.................... 0, 
.................... 0, 
.................... 0, 
.................... 0, 
.................... 0, 
.................... 0, 
.................... 0, 
.................... 0, 
.................... 0, 
.................... 0, 
.................... 0, 
.................... 0, 
.................... 0, 
.................... 0, 
.................... 0, 
.................... 0, 
.................... 0, 
.................... 0, 
.................... 0, 
.................... 0, 
.................... 0, 
.................... 0, 
.................... 0, 
.................... 1, 
.................... 0, 
.................... 1, 
.................... 0, 
.................... 2, 
.................... 7, 
.................... 28, 
.................... 31, 
.................... 1, 
.................... 5, 
.................... 0, 
.................... 0, 
.................... 0, 
.................... 0, 
.................... 0, 
.................... 0, 
.................... 0, 
.................... 0, 
.................... 0, 
.................... 0, 
.................... 0, 
.................... 0, 
.................... 0, 
.................... 0, 
.................... 0, 
.................... 0, 
.................... 0, 
.................... 0, 
.................... 1, 
.................... 0, 
.................... 1, 
.................... 0, 
.................... 2, 
.................... 0, 
.................... 3, 
.................... 0, 
.................... 5, 
.................... 0, 
.................... 38, 
.................... 91, 
.................... 45, 
.................... 9, 
.................... 0, 
.................... 13, 
.................... 63, 
.................... 59, 
.................... 11, 
.................... 0, 
.................... 27, 
.................... 58, 
.................... 41, 
.................... 3, 
.................... 0, 
.................... 0, 
.................... 0, 
.................... 0, 
.................... 0, 
.................... 0, 
.................... 0, 
.................... 0, 
.................... 0, 
.................... 0, 
.................... 0, 
.................... 0, 
.................... 0, 
.................... 0, 
.................... 0, 
.................... 0, 
.................... 0, 
.................... 0, 
.................... 0, 
.................... 0, 
.................... 0, 
.................... 0, 
.................... 0, 
.................... 0, 
.................... 0, 
.................... 0, 
.................... 0, 
.................... 0, 
.................... 0, 
.................... 0, 
.................... 0, 
.................... 0, 
.................... 0, 
.................... 0, 
.................... 0, 
.................... 0, 
.................... 1, 
.................... 9, 
.................... 16, 
.................... 8, 
.................... 0, 
.................... 1, 
.................... 0, 
.................... 5, 
.................... 1, 
.................... 0, 
.................... 0, 
.................... 0, 
.................... 0, 
.................... 2, 
.................... 12, 
.................... 1, 
.................... 4, 
.................... 1, 
.................... 0, 
.................... 0, 
.................... 0, 
.................... 0, 
.................... 0, 
.................... 0, 
.................... 0, 
.................... 0, 
.................... 0, 
.................... 0, 
.................... 0, 
.................... 0, 
.................... 0, 
.................... 0, 
.................... 0, 
.................... 0, 
.................... 0, 
.................... 0, 
.................... 0, 
.................... 0, 
.................... 0, 
.................... 0, 
.................... 1, 
.................... 0, 
.................... 7, 
.................... 14, 
.................... 0, 
.................... 0, 
.................... 0, 
.................... 0, 
.................... 0, 
.................... 0, 
.................... 0, 
.................... 1, 
.................... 0, 
.................... 1, 
.................... 0, 
.................... 10, 
.................... 12, 
.................... 11, 
.................... 42, 
.................... 56, 
.................... 34, 
.................... 34, 
.................... 42, 
.................... 9, 
.................... 3, 
.................... 0, 
.................... 0, 
.................... 0, 
.................... 0, 
.................... 0, 
.................... 0, 
.................... 0, 
.................... 0, 
.................... 0, 
.................... 0, 
.................... 0, 
.................... 0, 
.................... 0, 
.................... 0, 
.................... 0, 
.................... 0, 
.................... 0, 
.................... 0, 
.................... 5, 
.................... 25, 
.................... 37, 
.................... 48, 
.................... 51, 
.................... 38, 
.................... 44, 
.................... 48, 
.................... 26, 
.................... 12, 
.................... 0, 
.................... 3, 
.................... 0, 
.................... 3, 
.................... 0, 
.................... 4, 
.................... 0, 
.................... 4, 
.................... 5, 
.................... 34, 
.................... 77, 
.................... 33, 
.................... 54, 
.................... 72, 
.................... 104, 
.................... 40, 
.................... 76, 
.................... 25, 
.................... 55, 
.................... 71, 
.................... 0, 
.................... 75, 
.................... 104, 
.................... 60, 
.................... 0, 
.................... 41, 
.................... 27, 
.................... 28, 
.................... 69, 
.................... 33, 
.................... 71, 
.................... 0, 
.................... 12, 
.................... 68, 
.................... 95, 
.................... 63, 
.................... 17, 
.................... 103, 
.................... 0, 
.................... 98, 
.................... 94, 
.................... 104, 
.................... 119, 
.................... 55, 
.................... 3, 
.................... 0, 
.................... 7, 
.................... 0, 
.................... 40, 
.................... 79, 
.................... 106, 
.................... 91, 
.................... 95, 
.................... 122, 
.................... 81, 
.................... 152, 
.................... 119, 
.................... 35, 
.................... 95, 
.................... 96, 
.................... 126, 
.................... 105, 
.................... 98, 
.................... 81, 
.................... 134, 
.................... 136, 
.................... 130, 
.................... 96, 
.................... 123, 
.................... 147, 
.................... 84, 
.................... 19, 
.................... 119, 
.................... 104, 
.................... 172, 
.................... 166, 
.................... 133, 
.................... 198, 
.................... 182, 
.................... 254, 
.................... 245, 
.................... 254, 
.................... 254, 
.................... 247, 
.................... 254, 
.................... 86, 
.................... 185, 
.................... 118, 
.................... 8, 
.................... 30, 
.................... 0, 
.................... 10, 
.................... 0, 
.................... 5, 
.................... 0, 
.................... 1, 
.................... 1, 
.................... 0, 
.................... 6, 
.................... 0, 
.................... 30, 
.................... 94, 
.................... 102, 
.................... 136, 
.................... 207, 
.................... 254, 
.................... 239, 
.................... 254, 
.................... 244, 
.................... 254, 
.................... 247, 
.................... 254, 
.................... 249, 
.................... 58, 
.................... 180, 
.................... 39, 
.................... 0, 
.................... 15, 
.................... 0, 
.................... 11, 
.................... 0, 
.................... 8, 
.................... 0, 
.................... 15, 
.................... 230, 
.................... 254, 
.................... 247, 
.................... 253, 
.................... 254, 
.................... 208, 
.................... 34, 
.................... 9, 
.................... 0, 
.................... 2, 
.................... 0, 
.................... 0, 
.................... 4, 
.................... 0, 
.................... 28, 
.................... 62, 
.................... 173, 
.................... 254, 
.................... 239, 
.................... 254, 
.................... 238, 
.................... 254, 
.................... 227, 
.................... 254, 
.................... 79, 
.................... 100, 
.................... 114, 
.................... 0, 
.................... 17, 
.................... 0, 
.................... 2, 
.................... 12, 
.................... 95, 
.................... 0, 
.................... 218, 
.................... 254, 
.................... 249, 
.................... 254, 
.................... 250, 
.................... 254, 
.................... 248, 
.................... 254, 
.................... 52, 
.................... 0, 
.................... 9, 
.................... 0, 
.................... 8, 
.................... 0, 
.................... 11, 
.................... 0, 
.................... 75, 
.................... 254, 
.................... 243, 
.................... 254, 
.................... 245, 
.................... 254, 
.................... 243, 
.................... 254, 
.................... 237, 
.................... 254, 
.................... 151, 
.................... 0, 
.................... 157, 
.................... 0, 
.................... 6, 
.................... 0, 
.................... 14, 
.................... 0, 
.................... 161, 
.................... 117, 
.................... 189, 
.................... 254, 
.................... 235, 
.................... 254, 
.................... 246, 
.................... 254, 
.................... 254, 
.................... 217, 
.................... 0, 
.................... 6, 
.................... 0, 
.................... 1, 
.................... 1, 
.................... 0, 
.................... 8, 
.................... 0, 
.................... 184, 
.................... 254, 
.................... 248, 
.................... 254, 
.................... 254, 
.................... 251, 
.................... 254, 
.................... 246, 
.................... 254, 
.................... 237, 
.................... 254, 
.................... 147, 
.................... 5, 
.................... 85, 
.................... 0, 
.................... 12, 
.................... 0, 
.................... 11, 
.................... 0, 
.................... 195, 
.................... 234, 
.................... 223, 
.................... 254, 
.................... 241, 
.................... 254, 
.................... 246, 
.................... 254, 
.................... 236, 
.................... 56, 
.................... 0, 
.................... 12, 
.................... 0, 
.................... 9, 
.................... 0, 
.................... 8, 
.................... 0, 
.................... 29, 
.................... 241, 
.................... 254, 
.................... 254, 
.................... 252, 
.................... 254, 
.................... 248, 
.................... 254, 
.................... 242, 
.................... 254, 
.................... 229, 
.................... 254, 
.................... 67, 
.................... 68, 
.................... 170, 
.................... 0, 
.................... 2, 
.................... 18, 
.................... 5, 
.................... 42, 
.................... 223, 
.................... 122, 
.................... 254, 
.................... 250, 
.................... 253, 
.................... 254, 
.................... 246, 
.................... 254, 
.................... 60, 
.................... 0, 
.................... 4, 
.................... 0, 
.................... 0, 
.................... 4, 
.................... 0, 
.................... 10, 
.................... 0, 
.................... 72, 
.................... 254, 
.................... 248, 
.................... 254, 
.................... 252, 
.................... 254, 
.................... 252, 
.................... 254, 
.................... 250, 
.................... 254, 
.................... 247, 
.................... 246, 
.................... 0, 
.................... 144, 
.................... 129, 
.................... 0, 
.................... 0, 
.................... 35, 
.................... 32, 
.................... 33, 
.................... 230, 
.................... 166, 
.................... 254, 
.................... 235, 
.................... 254, 
.................... 238, 
.................... 254, 
.................... 174, 
.................... 0, 
.................... 9, 
.................... 0, 
.................... 6, 
.................... 0, 
.................... 6, 
.................... 0, 
.................... 11, 
.................... 0, 
.................... 176, 
.................... 254, 
.................... 245, 
.................... 254, 
.................... 254, 
.................... 251, 
.................... 254, 
.................... 247, 
.................... 254, 
.................... 241, 
.................... 254, 
.................... 182, 
.................... 0, 
.................... 244, 
.................... 39, 
.................... 0, 
.................... 0, 
.................... 132, 
.................... 5, 
.................... 110, 
.................... 230, 
.................... 182, 
.................... 254, 
.................... 219, 
.................... 254, 
.................... 217, 
.................... 254, 
.................... 47, 
.................... 138, 
.................... 204, 
.................... 0, 
.................... 19, 
.................... 0, 
.................... 12, 
.................... 0, 
.................... 10, 
.................... 3, 
.................... 254, 
.................... 155, 
.................... 129, 
.................... 254, 
.................... 243, 
.................... 254, 
.................... 254, 
.................... 246, 
.................... 254, 
.................... 231, 
.................... 254, 
.................... 66, 
.................... 88, 
.................... 212, 
.................... 0, 
.................... 9, 
.................... 12, 
.................... 84, 
.................... 0, 
.................... 218, 
.................... 191, 
.................... 240, 
.................... 254, 
.................... 249, 
.................... 254, 
.................... 254, 
.................... 237, 
.................... 35, 
.................... 254, 
.................... 84, 
.................... 0, 
.................... 5, 
.................... 0, 
.................... 0, 
.................... 9, 
.................... 0, 
.................... 99, 
.................... 254, 
.................... 77, 
.................... 232, 
.................... 254, 
.................... 248, 
.................... 254, 
.................... 251, 
.................... 254, 
.................... 254, 
.................... 250, 
.................... 254, 
.................... 0, 
.................... 190, 
.................... 122, 
.................... 0, 
.................... 17, 
.................... 0, 
.................... 0, 
.................... 44, 
.................... 250, 
.................... 190, 
.................... 254, 
.................... 232, 
.................... 254, 
.................... 227, 
.................... 254, 
.................... 131, 
.................... 104, 
.................... 254, 
.................... 0, 
.................... 14, 
.................... 0, 
.................... 14, 
.................... 0, 
.................... 20, 
.................... 0, 
.................... 214, 
.................... 207, 
.................... 96, 
.................... 254, 
.................... 243, 
.................... 254, 
.................... 254, 
.................... 249, 
.................... 254, 
.................... 239, 
.................... 254, 
.................... 161, 
.................... 11, 
.................... 244, 
.................... 16, 
.................... 1, 
.................... 0, 
.................... 11, 
.................... 0, 
.................... 139, 
.................... 246, 
.................... 209, 
.................... 254, 
.................... 235, 
.................... 254, 
.................... 235, 
.................... 254, 
.................... 72, 
.................... 245, 
.................... 138, 
.................... 0, 
.................... 15, 
.................... 0, 
.................... 7, 
.................... 0, 
.................... 2, 
.................... 21, 
.................... 254, 
.................... 81, 
.................... 191, 
.................... 254, 
.................... 245, 
.................... 254, 
.................... 254, 
.................... 248, 
.................... 254, 
.................... 234, 
.................... 254, 
.................... 102, 
.................... 57, 
.................... 196, 
.................... 0, 
.................... 23, 
.................... 0, 
.................... 19, 
.................... 0, 
.................... 187, 
.................... 218, 
.................... 232, 
.................... 254, 
.................... 246, 
.................... 254, 
.................... 252, 
.................... 247, 
.................... 150, 
.................... 254, 
.................... 54, 
.................... 0, 
.................... 0, 
.................... 4, 
.................... 0, 
.................... 10, 
.................... 0, 
.................... 69, 
.................... 254, 
.................... 86, 
.................... 248, 
.................... 254, 
.................... 254, 
.................... 251, 
.................... 254, 
.................... 246, 
.................... 254, 
.................... 233, 
.................... 254, 
.................... 52, 
.................... 104, 
.................... 183, 
.................... 0, 
.................... 23, 
.................... 0, 
.................... 13, 
.................... 0, 
.................... 221, 
.................... 206, 
.................... 246, 
.................... 254, 
.................... 249, 
.................... 254, 
.................... 251, 
.................... 254, 
.................... 231, 
.................... 254, 
.................... 26, 
.................... 0, 
.................... 0, 
.................... 8, 
.................... 0, 
.................... 17, 
.................... 0, 
.................... 78, 
.................... 223, 
.................... 99, 
.................... 254, 
.................... 242, 
.................... 254, 
.................... 245, 
.................... 254, 
.................... 241, 
.................... 254, 
.................... 230, 
.................... 254, 
.................... 51, 
.................... 103, 
.................... 204, 
.................... 0, 
.................... 19, 
.................... 0, 
.................... 9, 
.................... 0, 
.................... 213, 
.................... 148, 
.................... 241, 
.................... 254, 
.................... 246, 
.................... 254, 
.................... 246, 
.................... 254, 
.................... 245, 
.................... 254, 
.................... 28, 
.................... 0, 
.................... 0, 
.................... 6, 
.................... 0, 
.................... 12, 
.................... 0, 
.................... 37, 
.................... 154, 
.................... 108, 
.................... 254, 
.................... 240, 
.................... 254, 
.................... 244, 
.................... 254, 
.................... 241, 
.................... 254, 
.................... 231, 
.................... 254, 
.................... 104, 
.................... 88, 
.................... 249, 
.................... 0, 
.................... 17, 
.................... 0, 
.................... 15, 
.................... 0, 
.................... 173, 
.................... 254, 
.................... 242, 
.................... 254, 
.................... 246, 
.................... 254, 
.................... 246, 
.................... 254, 
.................... 242, 
.................... 254, 
.................... 70, 
.................... 0, 
.................... 6, 
.................... 0, 
.................... 0, 
.................... 2, 
.................... 0, 
.................... 7, 
.................... 32, 
.................... 72, 
.................... 254, 
.................... 244, 
.................... 254, 
.................... 245, 
.................... 254, 
.................... 241, 
.................... 254, 
.................... 230, 
.................... 254, 
.................... 106, 
.................... 86, 
.................... 250, 
.................... 0, 
.................... 16, 
.................... 0, 
.................... 15, 
.................... 0, 
.................... 174, 
.................... 254, 
.................... 235, 
.................... 254, 
.................... 244, 
.................... 254, 
.................... 245, 
.................... 254, 
.................... 242, 
.................... 254, 
.................... 77, 
.................... 0, 
.................... 8, 
.................... 0, 
.................... 2, 
.................... 0, 
.................... 0, 
.................... 5, 
.................... 0, 
.................... 139, 
.................... 254, 
.................... 237, 
.................... 254, 
.................... 240, 
.................... 254, 
.................... 238, 
.................... 254, 
.................... 229, 
.................... 254, 
.................... 147, 
.................... 92, 
.................... 246, 
.................... 0, 
.................... 13, 
.................... 0, 
.................... 13, 
.................... 0, 
.................... 150, 
.................... 254, 
.................... 241, 
.................... 254, 
.................... 246, 
.................... 254, 
.................... 246, 
.................... 254, 
.................... 243, 
.................... 254, 
.................... 97, 
.................... 0, 
.................... 13, 
.................... 0, 
.................... 9, 
.................... 0, 
.................... 9, 
.................... 0, 
.................... 24, 
.................... 231, 
.................... 254, 
.................... 246, 
.................... 254, 
.................... 248, 
.................... 254, 
.................... 249, 
.................... 254, 
.................... 251, 
.................... 254, 
.................... 248, 
.................... 43, 
.................... 245, 
.................... 75, 
.................... 0, 
.................... 5, 
.................... 4, 
.................... 0, 
.................... 81, 
.................... 247, 
.................... 139, 
.................... 254, 
.................... 238, 
.................... 254, 
.................... 244, 
.................... 254, 
.................... 245, 
.................... 254, 
.................... 210, 
.................... 0, 
.................... 1, 
.................... 0, 
.................... 0, 
.................... 3, 
.................... 0, 
.................... 10, 
.................... 0, 
.................... 159, 
.................... 254, 
.................... 245, 
.................... 254, 
.................... 253, 
.................... 252, 
.................... 254, 
.................... 246, 
.................... 254, 
.................... 234, 
.................... 254, 
.................... 95, 
.................... 170, 
.................... 234, 
.................... 0, 
.................... 24, 
.................... 0, 
.................... 25, 
.................... 0, 
.................... 219, 
.................... 136, 
.................... 156, 
.................... 254, 
.................... 231, 
.................... 254, 
.................... 239, 
.................... 254, 
.................... 239, 
.................... 254, 
.................... 83, 
.................... 0, 
.................... 10, 
.................... 0, 
.................... 5, 
.................... 0, 
.................... 2, 
.................... 0, 
.................... 15, 
.................... 254, 
.................... 118, 
.................... 146, 
.................... 254, 
.................... 235, 
.................... 254, 
.................... 248, 
.................... 254, 
.................... 254, 
.................... 242, 
.................... 254, 
.................... 88, 
.................... 221, 
.................... 160, 
.................... 0, 
.................... 21, 
.................... 0, 
.................... 10, 
.................... 3, 
.................... 254, 
.................... 64, 
.................... 188, 
.................... 254, 
.................... 238, 
.................... 254, 
.................... 242, 
.................... 254, 
.................... 240, 
.................... 254, 
.................... 77, 
.................... 0, 
.................... 9, 
.................... 0, 
.................... 3, 
.................... 0, 
.................... 0, 
.................... 3, 
.................... 5, 
.................... 254, 
.................... 89, 
.................... 130, 
.................... 254, 
.................... 237, 
.................... 254, 
.................... 252, 
.................... 250, 
.................... 254, 
.................... 235, 
.................... 254, 
.................... 136, 
.................... 162, 
.................... 212, 
.................... 0, 
.................... 21, 
.................... 0, 
.................... 15, 
.................... 0, 
.................... 248, 
.................... 78, 
.................... 146, 
.................... 254, 
.................... 228, 
.................... 254, 
.................... 234, 
.................... 254, 
.................... 231, 
.................... 254, 
.................... 122, 
.................... 0, 
.................... 15, 
.................... 3, 
.................... 0, 
.................... 11, 
.................... 0, 
.................... 23, 
.................... 0, 
.................... 177, 
.................... 195, 
.................... 26, 
.................... 254, 
.................... 247, 
.................... 254, 
.................... 254, 
.................... 252, 
.................... 254, 
.................... 251, 
.................... 254, 
.................... 243, 
.................... 77, 
.................... 254, 
.................... 70, 
.................... 0, 
.................... 0, 
.................... 12, 
.................... 0, 
.................... 135, 
.................... 172, 
.................... 26, 
.................... 254, 
.................... 232, 
.................... 254, 
.................... 244, 
.................... 254, 
.................... 251, 
.................... 253, 
.................... 254, 
.................... 39, 
.................... 36, 
.................... 31, 
.................... 0, 
.................... 6, 
.................... 0, 
.................... 0, 
.................... 10, 
.................... 0, 
.................... 200, 
.................... 53, 
.................... 103, 
.................... 254, 
.................... 231, 
.................... 254, 
.................... 243, 
.................... 254, 
.................... 248, 
.................... 254, 
.................... 250, 
.................... 254, 
.................... 160, 
.................... 254, 
.................... 31, 
.................... 0, 
.................... 0, 
.................... 15, 
.................... 0, 
.................... 103, 
.................... 167, 
.................... 15, 
.................... 254, 
.................... 240, 
.................... 254, 
.................... 250, 
.................... 253, 
.................... 254, 
.................... 243, 
.................... 254, 
.................... 48, 
.................... 108, 
.................... 46, 
.................... 0, 
.................... 6, 
.................... 0, 
.................... 0, 
.................... 12, 
.................... 0, 
.................... 60, 
.................... 118, 
.................... 48, 
.................... 254, 
.................... 239, 
.................... 254, 
.................... 246, 
.................... 254, 
.................... 246, 
.................... 254, 
.................... 240, 
.................... 254, 
.................... 136, 
.................... 243, 
.................... 162, 
.................... 0, 
.................... 18, 
.................... 0, 
.................... 10, 
.................... 0, 
.................... 212, 
.................... 5, 
.................... 128, 
.................... 254, 
.................... 231, 
.................... 254, 
.................... 234, 
.................... 254, 
.................... 227, 
.................... 254, 
.................... 137, 
.................... 89, 
.................... 75, 
.................... 0, 
.................... 15, 
.................... 0, 
.................... 8, 
.................... 0, 
.................... 5, 
.................... 0, 
.................... 6, 
.................... 0, 
.................... 204, 
.................... 254, 
.................... 246, 
.................... 254, 
.................... 249, 
.................... 254, 
.................... 248, 
.................... 254, 
.................... 244, 
.................... 254, 
.................... 146, 
.................... 254, 
.................... 96, 
.................... 0, 
.................... 7, 
.................... 0, 
.................... 0, 
.................... 30, 
.................... 164, 
.................... 0, 
.................... 210, 
.................... 254, 
.................... 246, 
.................... 254, 
.................... 246, 
.................... 254, 
.................... 241, 
.................... 254, 
.................... 86, 
.................... 1, 
.................... 13, 
.................... 0, 
.................... 4, 
.................... 0, 
.................... 0, 
.................... 3, 
.................... 0, 
.................... 9, 
.................... 0, 
.................... 68, 
.................... 12, 
.................... 110, 
.................... 254, 
.................... 241, 
.................... 254, 
.................... 252, 
.................... 253, 
.................... 254, 
.................... 245, 
.................... 254, 
.................... 207, 
.................... 252, 
.................... 172, 
.................... 0, 
.................... 14, 
.................... 0, 
.................... 11, 
.................... 0, 
.................... 153, 
.................... 4, 
.................... 126, 
.................... 254, 
.................... 231, 
.................... 254, 
.................... 236, 
.................... 254, 
.................... 233, 
.................... 254, 
.................... 150, 
.................... 3, 
.................... 21, 
.................... 0, 
.................... 2, 
.................... 0, 
.................... 0, 
.................... 1, 
.................... 0, 
.................... 2, 
.................... 0, 
.................... 7, 
.................... 78, 
.................... 0, 
.................... 173, 
.................... 254, 
.................... 247, 
.................... 254, 
.................... 254, 
.................... 251, 
.................... 254, 
.................... 242, 
.................... 254, 
.................... 192, 
.................... 205, 
.................... 226, 
.................... 0, 
.................... 17, 
.................... 0, 
.................... 19, 
.................... 0, 
.................... 144, 
.................... 45, 
.................... 39, 
.................... 254, 
.................... 232, 
.................... 254, 
.................... 236, 
.................... 254, 
.................... 232, 
.................... 254, 
.................... 151, 
.................... 17, 
.................... 76, 
.................... 0, 
.................... 9, 
.................... 0, 
.................... 3, 
.................... 0, 
.................... 1, 
.................... 0, 
.................... 0, 
.................... 0, 
.................... 39, 
.................... 14, 
.................... 0, 
.................... 190, 
.................... 254, 
.................... 250, 
.................... 254, 
.................... 254, 
.................... 252, 
.................... 254, 
.................... 249, 
.................... 254, 
.................... 239, 
.................... 254, 
.................... 188, 
.................... 0, 
.................... 12, 
.................... 0, 
.................... 10, 
.................... 0, 
.................... 46, 
.................... 0, 
.................... 62, 
.................... 254, 
.................... 243, 
.................... 254, 
.................... 245, 
.................... 254, 
.................... 241, 
.................... 254, 
.................... 108, 
.................... 0, 
.................... 10, 
.................... 0, 
.................... 4, 
.................... 0, 
.................... 1, 
.................... 0, 
.................... 0, 
.................... 1, 
.................... 0, 
.................... 0, 
.................... 26, 
.................... 7, 
.................... 0, 
.................... 21, 
.................... 254, 
.................... 149, 
.................... 184, 
.................... 254, 
.................... 239, 
.................... 254, 
.................... 250, 
.................... 253, 
.................... 254, 
.................... 142, 
.................... 245, 
.................... 139, 
.................... 0, 
.................... 20, 
.................... 0, 
.................... 9, 
.................... 0, 
.................... 3, 
.................... 1, 
.................... 0, 
.................... 117, 
.................... 254, 
.................... 242, 
.................... 254, 
.................... 246, 
.................... 254, 
.................... 226, 
.................... 21, 
.................... 0, 
.................... 4, 
.................... 0, 
.................... 3, 
.................... 0, 
.................... 3, 
.................... 0, 
.................... 3, 
.................... 0, 
.................... 3, 
.................... 0, 
.................... 3, 
.................... 0, 
.................... 3, 
.................... 0, 
.................... 2, 
.................... 0, 
.................... 7, 
.................... 205, 
.................... 254, 
.................... 248, 
.................... 254, 
.................... 254, 
.................... 251, 
.................... 254, 
.................... 101, 
.................... 254, 
.................... 168, 
.................... 0, 
.................... 15, 
.................... 0, 
.................... 6, 
.................... 0, 
.................... 0, 
.................... 4, 
.................... 0, 
.................... 37, 
.................... 197, 
.................... 240, 
.................... 254, 
.................... 254, 
.................... 247, 
.................... 254, 
.................... 43, 
.................... 16, 
.................... 113, 
.................... 0, 
.................... 8, 
.................... 0, 
.................... 3, 
.................... 0, 
.................... 1, 
.................... 0, 
.................... 0, 
.................... 1, 
.................... 0, 
.................... 3, 
.................... 0, 
.................... 5, 
.................... 0, 
.................... 8, 
.................... 6, 
.................... 154, 
.................... 254, 
.................... 254, 
.................... 246, 
.................... 254, 
.................... 232, 
.................... 254, 
.................... 144, 
.................... 140, 
.................... 245, 
.................... 0, 
.................... 9, 
.................... 0, 
.................... 2, 
.................... 0, 
.................... 0, 
.................... 0, 
.................... 2, 
.................... 0, 
.................... 154, 
.................... 238, 
.................... 244, 
.................... 219, 
.................... 244, 
.................... 254, 
.................... 240, 
.................... 29, 
.................... 11, 
.................... 23, 
.................... 0, 
.................... 10, 
.................... 0, 
.................... 6, 
.................... 0, 
.................... 5, 
.................... 0, 
.................... 3, 
.................... 0, 
.................... 3, 
.................... 0, 
.................... 2, 
.................... 0, 
.................... 2, 
.................... 0, 
.................... 2, 
.................... 0, 
.................... 20, 
.................... 208, 
.................... 254, 
.................... 253, 
.................... 254, 
.................... 254, 
.................... 253, 
.................... 254, 
.................... 240, 
.................... 224, 
.................... 254, 
.................... 60, 
.................... 0, 
.................... 9, 
.................... 0, 
.................... 5, 
.................... 0, 
.................... 5, 
.................... 0, 
.................... 5, 
.................... 0, 
.................... 146, 
.................... 254, 
.................... 180, 
.................... 232, 
.................... 254, 
.................... 157, 
.................... 69, 
.................... 64, 
.................... 18, 
.................... 0, 
.................... 0, 
.................... 0, 
.................... 0, 
.................... 0, 
.................... 0, 
.................... 0, 
.................... 0, 
.................... 0, 
.................... 0, 
.................... 0, 
.................... 1, 
.................... 0, 
.................... 3, 
.................... 0, 
.................... 7, 
.................... 0, 
.................... 167, 
.................... 254, 
.................... 245, 
.................... 254, 
.................... 249, 
.................... 254, 
.................... 251, 
.................... 254, 
.................... 251, 
.................... 254, 
.................... 248, 
.................... 254, 
.................... 67, 
.................... 0, 
.................... 8, 
.................... 0, 
.................... 3, 
.................... 0, 
.................... 0, 
.................... 1, 
.................... 0, 
.................... 3, 
.................... 0, 
.................... 21, 
.................... 6, 
.................... 41, 
.................... 166, 
.................... 32, 
.................... 0, 
.................... 3, 
.................... 0, 
.................... 2, 
.................... 0, 
.................... 2, 
.................... 0, 
.................... 2, 
.................... 0, 
.................... 2, 
.................... 0, 
.................... 2, 
.................... 0, 
.................... 2, 
.................... 0, 
.................... 2, 
.................... 0, 
.................... 1, 
.................... 0, 
.................... 0, 
.................... 2, 
.................... 0, 
.................... 149, 
.................... 192, 
.................... 247, 
.................... 254, 
.................... 248, 
.................... 254, 
.................... 248, 
.................... 254, 
.................... 246, 
.................... 254, 
.................... 172, 
.................... 140, 
.................... 70, 
.................... 0, 
.................... 6, 
.................... 0, 
.................... 2, 
.................... 0, 
.................... 1, 
.................... 0, 
.................... 0, 
.................... 1, 
.................... 0, 
.................... 1, 
.................... 0, 
.................... 5, 
.................... 15, 
.................... 0, 
.................... 1, 
.................... 0, 
.................... 0, 
.................... 0, 
.................... 0, 
.................... 0, 
.................... 0, 
.................... 0, 
.................... 1, 
.................... 0, 
.................... 1, 
.................... 0, 
.................... 2, 
.................... 0, 
.................... 2, 
.................... 0, 
.................... 3, 
.................... 0, 
.................... 3, 
.................... 0, 
.................... 2, 
.................... 44, 
.................... 23, 
.................... 30, 
.................... 6, 
.................... 50, 
.................... 26, 
.................... 140, 
.................... 222, 
.................... 254, 
.................... 254, 
.................... 251, 
.................... 254, 
.................... 237, 
.................... 254, 
.................... 76, 
.................... 6, 
.................... 23, 
.................... 0, 
.................... 4, 
.................... 0, 
.................... 2, 
.................... 0, 
.................... 1, 
.................... 0, 
.................... 1, 
.................... 0, 
.................... 1, 
.................... 0, 
.................... 0, 
.................... 0, 
.................... 0, 
.................... 0, 
.................... 0, 
.................... 0, 
.................... 0, 
.................... 0, 
.................... 0, 
.................... 0, 
.................... 0, 
.................... 0, 
.................... 0, 
.................... 0, 
.................... 1, 
.................... 0, 
.................... 1, 
.................... 0, 
.................... 1, 
.................... 0, 
.................... 2, 
.................... 0, 
.................... 2, 
.................... 0, 
.................... 1, 
.................... 0, 
.................... 0, 
.................... 49, 
.................... 76, 
.................... 71, 
.................... 82, 
.................... 26, 
.................... 10, 
.................... 155, 
.................... 87, 
.................... 121, 
.................... 130, 
.................... 214, 
.................... 228, 
.................... 140, 
.................... 99, 
.................... 139, 
.................... 146, 
.................... 53, 
.................... 41, 
.................... 6, 
.................... 7, 
.................... 0, 
.................... 3, 
.................... 0, 
.................... 2, 
.................... 0, 
.................... 1, 
.................... 0, 
.................... 0, 
.................... 0, 
.................... 0, 
.................... 0, 
.................... 0, 
.................... 0, 
.................... 0, 
.................... 0, 
.................... 0, 
.................... 0, 
.................... 0, 
.................... 0, 
.................... 0, 
.................... 0, 
.................... 0, 
.................... 0, 
.................... 0, 
.................... 0, 
.................... 0, 
.................... 0, 
.................... 0, 
.................... 0, 
.................... 0, 
.................... 0, 
.................... 2, 
.................... 0, 
.................... 35, 
.................... 14, 
.................... 15, 
.................... 34, 
.................... 17, 
.................... 9, 
.................... 8, 
.................... 36, 
.................... 102, 
.................... 90, 
.................... 131, 
.................... 70, 
.................... 145, 
.................... 106, 
.................... 57, 
.................... 8, 
.................... 13, 
.................... 46, 
.................... 24, 
.................... 106, 
.................... 62, 
.................... 0, 
.................... 0, 
.................... 5, 
.................... 19, 
.................... 79, 
.................... 8, 
.................... 0, 
.................... 11, 
.................... 91, 
.................... 16, 
.................... 31, 
.................... 86, 
.................... 33, 
.................... 0, 
.................... 16, 
.................... 62, 
.................... 8, 
.................... 0, 
.................... 4, 
.................... 0, 
.................... 7, 
.................... 1, 
.................... 2, 
.................... 0, 
.................... 4, 
.................... 0, 
.................... 49, 
.................... 64, 
.................... 28, 
.................... 27, 
.................... 0, 
.................... 2, 
.................... 0, 
.................... 2, 
.................... 6, 
.................... 0, 
.................... 47, 
.................... 82, 
.................... 44, 
.................... 0, 
.................... 0, 
.................... 5, 
.................... 70, 
.................... 12, 
.................... 64, 
.................... 101, 
.................... 55, 
.................... 30, 
.................... 86, 
.................... 89, 
.................... 63, 
.................... 29, 
.................... 69, 
.................... 91, 
.................... 20, 
.................... 76, 
.................... 11, 
.................... 45, 
.................... 0, 
.................... 30, 
.................... 90, 
.................... 30, 
.................... 0, 
.................... 68, 
.................... 114, 
.................... 83, 
.................... 128, 
.................... 84, 
.................... 28, 
.................... 28, 
.................... 94, 
.................... 21, 
.................... 0, 
.................... 35, 
.................... 32, 
.................... 61, 
.................... 19, 
.................... 57, 
.................... 0, 
.................... 22, 
.................... 39, 
.................... 21, 
.................... 11, 
.................... 11, 
.................... 67, 
.................... 35, 
.................... 131, 
.................... 106, 
.................... 115, 
.................... 86, 
.................... 91, 
.................... 60, 
.................... 80, 
.................... 74, 
.................... 79, 
.................... 108, 
.................... 85, 
.................... 22, 
.................... 13, 
.................... 22, 
.................... 0, 
.................... 7, 
.................... 0, 
.................... 76, 
.................... 53, 
.................... 56, 
.................... 43, 
.................... 34, 
.................... 67, 
.................... 99, 
.................... 80, 
.................... 89, 
.................... 73, 
.................... 80, 
.................... 83, 
.................... 45, 
.................... 57, 
.................... 79, 
.................... 43, 
.................... 35, 
.................... 93, 
.................... 79, 
.................... 4, 
.................... 84, 
.................... 125, 
.................... 92, 
.................... 72, 
.................... 121, 
.................... 70, 
.................... 95, 
.................... 43, 
.................... 45, 
.................... 82, 
.................... 49, 
.................... 45, 
.................... 53, 
.................... 125, 
.................... 105, 
.................... 149, 
.................... 80, 
.................... 141, 
.................... 37, 
.................... 77, 
.................... 94, 
.................... 83, 
.................... 81, 
.................... 85, 
.................... 108, 
.................... 56, 
.................... 52, 
.................... 4, 
.................... 54, 
.................... 103, 
.................... 88, 
.................... 65, 
.................... 71, 
.................... 84, 
.................... 125, 
.................... 98, 
.................... 121, 
.................... 114, 
.................... 55, 
.................... 104, 
.................... 95, 
.................... 68, 
.................... 50, 
.................... 40, 
.................... 107, 
.................... 52, 
.................... 35, 
.................... 38, 
.................... 44, 
.................... 92, 
.................... 16, 
.................... 71, 
.................... 135, 
.................... 102, 
.................... 79, 
.................... 114, 
.................... 63, 
.................... 78, 
.................... 136, 
.................... 92, 
.................... 74, 
.................... 79, 
.................... 98, 
.................... 129, 
.................... 72, 
.................... 37, 
.................... 65, 
.................... 94, 
.................... 80, 
.................... 53, 
.................... 99, 
.................... 108, 
.................... 138, 
.................... 105, 
.................... 118, 
.................... 97, 
.................... 131, 
.................... 116, 
.................... 138, 
.................... 87, 
.................... 123, 
.................... 120, 
.................... 99, 
.................... 92, 
.................... 85, 
.................... 59, 
.................... 96, 
.................... 65, 
.................... 55, 
.................... 157, 
.................... 79, 
.................... 135, 
.................... 89, 
.................... 104, 
.................... 78, 
.................... 77, 
.................... 79, 
.................... 71, 
.................... 77, 
.................... 12, 
.................... 9, 
.................... 34, 
.................... 95, 
.................... 16, 
.................... 17, 
.................... 84, 
.................... 35, 
.................... 62, 
.................... 124, 
.................... 106, 
.................... 73, 
.................... 91, 
.................... 82, 
.................... 28, 
.................... 35, 
.................... 44, 
.................... 63, 
.................... 127, 
.................... 65, 
.................... 94, 
.................... 141, 
.................... 88, 
.................... 147, 
.................... 92, 
.................... 120, 
.................... 120, 
.................... 94, 
.................... 112, 
.................... 65, 
.................... 109, 
.................... 118, 
.................... 96, 
.................... 119, 
.................... 109, 
.................... 21, 
.................... 80, 
.................... 99, 
.................... 30, 
.................... 96, 
.................... 73, 
.................... 87, 
.................... 21, 
.................... 79, 
.................... 86, 
.................... 95, 
.................... 113, 
.................... 110, 
.................... 135, 
.................... 107, 
.................... 132, 
.................... 103, 
.................... 105, 
.................... 103, 
.................... 82, 
.................... 117, 
.................... 112, 
.................... 93, 
.................... 85, 
.................... 69, 
.................... 83, 
.................... 91, 
.................... 74, 
.................... 65, 
.................... 132, 
.................... 131, 
.................... 106, 
.................... 84, 
.................... 75, 
.................... 63, 
.................... 60, 
.................... 82, 
.................... 85, 
.................... 99, 
.................... 142, 
.................... 75, 
.................... 116, 
.................... 104, 
.................... 114, 
.................... 101, 
.................... 122, 
.................... 47, 
.................... 86, 
.................... 52, 
.................... 86, 
.................... 127, 
.................... 113, 
.................... 136, 
.................... 98, 
.................... 106, 
.................... 91, 
.................... 117, 
.................... 122, 
.................... 131, 
.................... 101, 
.................... 123, 
.................... 103, 
.................... 73, 
.................... 146, 
.................... 111, 
.................... 45, 
.................... 99, 
.................... 96, 
.................... 36, 
.................... 52, 
.................... 22, 
.................... 40, 
.................... 52, 
.................... 76, 
.................... 113, 
.................... 108, 
.................... 126, 
.................... 82, 
.................... 145, 
.................... 106, 
.................... 122, 
.................... 50, 
.................... 58, 
.................... 79, 
.................... 61, 
.................... 67, 
.................... 4, 
.................... 121, 
.................... 119, 
.................... 64, 
.................... 111, 
.................... 82, 
.................... 102, 
.................... 105, 
.................... 112, 
.................... 129, 
.................... 111, 
.................... 98, 
.................... 93, 
.................... 151, 
.................... 74, 
.................... 37, 
.................... 73, 
.................... 132, 
.................... 108, 
.................... 98, 
.................... 102, 
.................... 48, 
.................... 135, 
.................... 106, 
.................... 105, 
.................... 120, 
.................... 111, 
.................... 153, 
.................... 128, 
.................... 61, 
.................... 101, 
.................... 53, 
.................... 49, 
.................... 110, 
.................... 108, 
.................... 107, 
.................... 118, 
.................... 108, 
.................... 85, 
.................... 118, 
.................... 87, 
.................... 92, 
.................... 128, 
.................... 125, 
.................... 107, 
.................... 69, 
.................... 100, 
.................... 66, 
.................... 114, 
.................... 153, 
.................... 92, 
.................... 111, 
.................... 97, 
.................... 55, 
.................... 69, 
.................... 101, 
.................... 116, 
.................... 109, 
.................... 130, 
.................... 107, 
.................... 74, 
.................... 87, 
.................... 89, 
.................... 136, 
.................... 118, 
.................... 97, 
.................... 129, 
.................... 114, 
.................... 119, 
.................... 121, 
.................... 76, 
.................... 68, 
.................... 56, 
.................... 105, 
.................... 86, 
.................... 129, 
.................... 122, 
.................... 127, 
.................... 129, 
.................... 109, 
.................... 132, 
.................... 104, 
.................... 120, 
.................... 99, 
.................... 111, 
.................... 174, 
.................... 91, 
.................... 91, 
.................... 154, 
.................... 109, 
.................... 111, 
.................... 131, 
.................... 116, 
.................... 99, 
.................... 124, 
.................... 110, 
.................... 103, 
.................... 123, 
.................... 127, 
.................... 111, 
.................... 109, 
.................... 126, 
.................... 101, 
.................... 84, 
.................... 106, 
.................... 99, 
.................... 58, 
.................... 153, 
.................... 113, 
.................... 89, 
.................... 103, 
.................... 119, 
.................... 98, 
.................... 82, 
.................... 142, 
.................... 102, 
.................... 117, 
.................... 114, 
.................... 132, 
.................... 84, 
.................... 127, 
.................... 130, 
.................... 103, 
.................... 113, 
.................... 102, 
.................... 101, 
.................... 90, 
.................... 71, 
.................... 91, 
.................... 112, 
.................... 111, 
.................... 123, 
.................... 94, 
.................... 93, 
.................... 119, 
.................... 130, 
.................... 108, 
.................... 160, 
.................... 117, 
.................... 124, 
.................... 114, 
.................... 82, 
.................... 131, 
.................... 123, 
.................... 132, 
.................... 111, 
.................... 117, 
.................... 109, 
.................... 103, 
.................... 88, 
.................... 116, 
.................... 111, 
.................... 113, 
.................... 143, 
.................... 112, 
.................... 93, 
.................... 128, 
.................... 45, 
.................... 72, 
.................... 122, 
.................... 100, 
.................... 108, 
.................... 115, 
.................... 111, 
.................... 111, 
.................... 162, 
.................... 132, 
.................... 78, 
.................... 148, 
.................... 145, 
.................... 152, 
.................... 74, 
.................... 124, 
.................... 38, 
.................... 73, 
.................... 84, 
.................... 97, 
.................... 128, 
.................... 103, 
.................... 107, 
.................... 91, 
.................... 97, 
.................... 125, 
.................... 153, 
.................... 120, 
.................... 150, 
.................... 144, 
.................... 111, 
.................... 93, 
.................... 147, 
.................... 138, 
.................... 61, 
.................... 55, 
.................... 95, 
.................... 80, 
.................... 71, 
.................... 52, 
.................... 126, 
.................... 116, 
.................... 68, 
.................... 78, 
.................... 16, 
.................... 86, 
.................... 92, 
.................... 120, 
.................... 109, 
.................... 104, 
.................... 157, 
.................... 95, 
.................... 122, 
.................... 75, 
.................... 119, 
.................... 76, 
.................... 108, 
.................... 123, 
.................... 101, 
.................... 113, 
.................... 100, 
.................... 98, 
.................... 95, 
.................... 88, 
.................... 106, 
.................... 139, 
.................... 139, 
.................... 67, 
.................... 118, 
.................... 142, 
.................... 99, 
.................... 139, 
.................... 103, 
.................... 80, 
.................... 122, 
.................... 143, 
.................... 85, 
.................... 93, 
.................... 101, 
.................... 106, 
.................... 127, 
.................... 97, 
.................... 95, 
.................... 80, 
.................... 91, 
.................... 103, 
.................... 108, 
.................... 102, 
.................... 106, 
.................... 106, 
.................... 96, 
.................... 115, 
.................... 156, 
.................... 96, 
.................... 123, 
.................... 132, 
.................... 98, 
.................... 125, 
.................... 76, 
.................... 118, 
.................... 115, 
.................... 86, 
.................... 102, 
.................... 98, 
.................... 131, 
.................... 136, 
.................... 129, 
.................... 125, 
.................... 115, 
.................... 108, 
.................... 111, 
.................... 63, 
.................... 68, 
.................... 110, 
.................... 50, 
.................... 62, 
.................... 137, 
.................... 99, 
.................... 114, 
.................... 73, 
.................... 125, 
.................... 78, 
.................... 88, 
.................... 96, 
.................... 80, 
.................... 138, 
.................... 81, 
.................... 119, 
.................... 109, 
.................... 100, 
.................... 65, 
.................... 96, 
.................... 87, 
.................... 88, 
.................... 100, 
.................... 141, 
.................... 142, 
.................... 86, 
.................... 133, 
.................... 68, 
.................... 100, 
.................... 122, 
.................... 122, 
.................... 85, 
.................... 91, 
.................... 121, 
.................... 113, 
.................... 75, 
.................... 78, 
.................... 94, 
.................... 125, 
.................... 121, 
.................... 98, 
.................... 130, 
.................... 100, 
.................... 97, 
.................... 57, 
.................... 29, 
.................... 58, 
.................... 114, 
.................... 119, 
.................... 117, 
.................... 129, 
.................... 112, 
.................... 117, 
.................... 89, 
.................... 115, 
.................... 117, 
.................... 113, 
.................... 94, 
.................... 117, 
.................... 102, 
.................... 103, 
.................... 105, 
.................... 70, 
.................... 106, 
.................... 29, 
.................... 95, 
.................... 6, 
.................... 57, 
.................... 94, 
.................... 84, 
.................... 78, 
.................... 98, 
.................... 141, 
.................... 107, 
.................... 131, 
.................... 89, 
.................... 124, 
.................... 91, 
.................... 84, 
.................... 43, 
.................... 130, 
.................... 103, 
.................... 116, 
.................... 148, 
.................... 89, 
.................... 110, 
.................... 153, 
.................... 78, 
.................... 103, 
.................... 97, 
.................... 52, 
.................... 139, 
.................... 79, 
.................... 114, 
.................... 82, 
.................... 124, 
.................... 130, 
.................... 83, 
.................... 72, 
.................... 29, 
.................... 148, 
.................... 93, 
.................... 79, 
.................... 110, 
.................... 72, 
.................... 160, 
.................... 105, 
.................... 124, 
.................... 144, 
.................... 116, 
.................... 69, 
.................... 97, 
.................... 133, 
.................... 97, 
.................... 88, 
.................... 102, 
.................... 88, 
.................... 90, 
.................... 70, 
.................... 116, 
.................... 92, 
.................... 114, 
.................... 75, 
.................... 113, 
.................... 135, 
.................... 88, 
.................... 102, 
.................... 116, 
.................... 136, 
.................... 112, 
.................... 71, 
.................... 122, 
.................... 104, 
.................... 97, 
.................... 84, 
.................... 78, 
.................... 93, 
.................... 110, 
.................... 109, 
.................... 95, 
.................... 109, 
.................... 132, 
.................... 121, 
.................... 133, 
.................... 128, 
.................... 89, 
.................... 139, 
.................... 119, 
.................... 119, 
.................... 100, 
.................... 116, 
.................... 140, 
.................... 30, 
.................... 63, 
.................... 11, 
.................... 88, 
.................... 101, 
.................... 129, 
.................... 78, 
.................... 54, 
.................... 148, 
.................... 92, 
.................... 94, 
.................... 92, 
.................... 165, 
.................... 75, 
.................... 130, 
.................... 122, 
.................... 109, 
.................... 110, 
.................... 132, 
.................... 95, 
.................... 81, 
.................... 120, 
.................... 125, 
.................... 112, 
.................... 132, 
.................... 67, 
.................... 115, 
.................... 102, 
.................... 88, 
.................... 111, 
.................... 125, 
.................... 118, 
.................... 105, 
.................... 141, 
.................... 86, 
.................... 131, 
.................... 111, 
.................... 86, 
.................... 84, 
.................... 133, 
.................... 121, 
.................... 133, 
.................... 104, 
.................... 72, 
.................... 99, 
.................... 86, 
.................... 131, 
.................... 76, 
.................... 87, 
.................... 120, 
.................... 167, 
.................... 119, 
.................... 118, 
.................... 113, 
.................... 108, 
.................... }; 
.................... char dato[100]={}; 
....................  
.................... #int_rda 
.................... void rda_isr() 
....................    { 
....................    output_high(PIN_b7); 
*
133E:  BCF    F93.7
1340:  BSF    F8A.7
....................    x=1; 
1342:  MOVLW  01
1344:  MOVWF  19
....................    a=fgetc(); 
1346:  BTFSS  F9E.5
1348:  BRA    1346
134A:  MOVFF  FAE,18
....................    if(a=='@'){ 
134E:  MOVF   18,W
1350:  SUBLW  40
1352:  BNZ   1360
....................    k=1;  
1354:  MOVLW  01
1356:  MOVWF  1C
....................    e=100; 
1358:  MOVLW  64
135A:  MOVWF  1A
....................    dato[0]=a; 
135C:  MOVFF  18,1D
....................    } 
....................    if(k==1){ 
1360:  DECFSZ 1C,W
1362:  BRA    1394
....................       for(d=1;d<=e;d++) { 
1364:  MOVLW  01
1366:  MOVWF  1B
1368:  MOVF   1B,W
136A:  SUBWF  1A,W
136C:  BNC   1394
....................       a=fgetc(); 
136E:  BTFSS  F9E.5
1370:  BRA    136E
1372:  MOVFF  FAE,18
....................       dato[d]=a; 
1376:  CLRF   03
1378:  MOVF   1B,W
137A:  ADDLW  1D
137C:  MOVWF  FE9
137E:  MOVLW  00
1380:  ADDWFC 03,W
1382:  MOVWF  FEA
1384:  MOVFF  18,FEF
....................       if(a=='#'){ 
1388:  MOVF   18,W
138A:  SUBLW  23
138C:  BNZ   1390
....................       e=0; 
138E:  CLRF   1A
....................       } 
....................      } 
1390:  INCF   1B,F
1392:  BRA    1368
....................    } 
....................     k=0;   
1394:  CLRF   1C
....................    } 
....................  
1396:  BCF    F9E.5
1398:  GOTO   0054
.................... void main() 
.................... { 
*
1576:  CLRF   FF8
1578:  BCF    FD0.7
157A:  BSF    07.7
157C:  CLRF   FEA
157E:  CLRF   FE9
1580:  BSF    FB8.3
1582:  MOVLW  08
1584:  MOVWF  FAF
1586:  MOVLW  02
1588:  MOVWF  FB0
158A:  MOVLW  A6
158C:  MOVWF  FAC
158E:  MOVLW  90
1590:  MOVWF  FAB
1592:  CLRF   19
1594:  CLRF   1A
1596:  CLRF   1B
1598:  CLRF   1C
159A:  MOVF   FC1,W
159C:  ANDLW  C0
159E:  IORLW  0F
15A0:  MOVWF  FC1
15A2:  MOVLW  07
15A4:  MOVWF  FB4
15A6:  CLRF   1D
15A8:  CLRF   1E
15AA:  CLRF   1F
15AC:  CLRF   20
15AE:  CLRF   21
15B0:  CLRF   22
15B2:  CLRF   23
15B4:  CLRF   24
15B6:  CLRF   25
15B8:  CLRF   26
15BA:  CLRF   27
15BC:  CLRF   28
15BE:  CLRF   29
15C0:  CLRF   2A
15C2:  CLRF   2B
15C4:  CLRF   2C
15C6:  CLRF   2D
15C8:  CLRF   2E
15CA:  CLRF   2F
15CC:  CLRF   30
15CE:  CLRF   31
15D0:  CLRF   32
15D2:  CLRF   33
15D4:  CLRF   34
15D6:  CLRF   35
15D8:  CLRF   36
15DA:  CLRF   37
15DC:  CLRF   38
15DE:  CLRF   39
15E0:  CLRF   3A
15E2:  CLRF   3B
15E4:  CLRF   3C
15E6:  CLRF   3D
15E8:  CLRF   3E
15EA:  CLRF   3F
15EC:  CLRF   40
15EE:  CLRF   41
15F0:  CLRF   42
15F2:  CLRF   43
15F4:  CLRF   44
15F6:  CLRF   45
15F8:  CLRF   46
15FA:  CLRF   47
15FC:  CLRF   48
15FE:  CLRF   49
1600:  CLRF   4A
1602:  CLRF   4B
1604:  CLRF   4C
1606:  CLRF   4D
1608:  CLRF   4E
160A:  CLRF   4F
160C:  CLRF   50
160E:  CLRF   51
1610:  CLRF   52
1612:  CLRF   53
1614:  CLRF   54
1616:  CLRF   55
1618:  CLRF   56
161A:  CLRF   57
161C:  CLRF   58
161E:  CLRF   59
1620:  CLRF   5A
1622:  CLRF   5B
1624:  CLRF   5C
1626:  CLRF   5D
1628:  CLRF   5E
162A:  CLRF   5F
162C:  CLRF   x60
162E:  CLRF   x61
1630:  CLRF   x62
1632:  CLRF   x63
1634:  CLRF   x64
1636:  CLRF   x65
1638:  CLRF   x66
163A:  CLRF   x67
163C:  CLRF   x68
163E:  CLRF   x69
1640:  CLRF   x6A
1642:  CLRF   x6B
1644:  CLRF   x6C
1646:  CLRF   x6D
1648:  CLRF   x6E
164A:  CLRF   x6F
164C:  CLRF   x70
164E:  CLRF   x71
1650:  CLRF   x72
1652:  CLRF   x73
1654:  CLRF   x74
1656:  CLRF   x75
1658:  CLRF   x76
165A:  CLRF   x77
165C:  CLRF   x78
165E:  CLRF   x79
1660:  CLRF   x7A
1662:  CLRF   x7B
1664:  CLRF   x7C
1666:  CLRF   x7D
1668:  CLRF   x7E
166A:  CLRF   x7F
166C:  CLRF   x80
....................    //set_tris_a (0xff); 
....................    set_tris_b (0xff); 
166E:  MOVLW  FF
1670:  MOVWF  F93
....................    //set_tris_d (0x00); 
....................     
....................    lcd_init (); 
1672:  BRA    1484
....................     
....................    printf (lcd_putc, "AUTOR"); 
1674:  MOVLW  9C
1676:  MOVWF  FF6
1678:  MOVLW  13
167A:  MOVWF  FF7
167C:  RCALL  154C
....................    lcd_gotoxy (1, 2) ; 
167E:  MOVLW  01
1680:  MOVWF  x84
1682:  MOVLW  02
1684:  MOVWF  x85
1686:  RCALL  14E6
....................    printf (lcd_putc, "JAIME DIAZ"); 
1688:  MOVLW  A2
168A:  MOVWF  FF6
168C:  MOVLW  13
168E:  MOVWF  FF7
1690:  RCALL  154C
....................    delay_ms (1000); 
1692:  MOVLW  04
1694:  MOVWF  x81
1696:  MOVLW  FA
1698:  MOVWF  x84
169A:  RCALL  13BE
169C:  DECFSZ x81,F
169E:  BRA    1696
....................    lcd_putc ('\f'); 
16A0:  MOVLW  0C
16A2:  MOVWF  x83
16A4:  RCALL  1508
....................     
....................    enable_interrupts(int_rda); 
16A6:  BSF    F9D.5
....................    enable_interrupts(GLOBAL); 
16A8:  MOVLW  C0
16AA:  IORWF  FF2,F
....................   
....................  setup_ccp1(ccp_pwm); 
16AC:  BCF    F94.2
16AE:  BCF    F8B.2
16B0:  BCF    F96.6
16B2:  MOVLW  0C
16B4:  MOVWF  FBD
16B6:  CLRF   FB7
16B8:  CLRF   FB6
....................  setup_timer_2(t2_div_by_1,255,1); 
16BA:  MOVLW  00
16BC:  IORLW  04
16BE:  MOVWF  FCA
16C0:  MOVLW  FF
16C2:  MOVWF  FCB
....................     
....................   
....................         
....................     while(true){ 
....................         if(x==1) 
16C4:  DECFSZ 19,W
16C6:  BRA    174A
....................          { 
....................          
....................          output_low(PIN_b7); 
16C8:  BCF    F93.7
16CA:  BCF    F8A.7
....................           
....................          
....................       if(dato[0]=='@'){ 
16CC:  MOVF   1D,W
16CE:  SUBLW  40
16D0:  BNZ   1748
....................        e=100; 
16D2:  MOVLW  64
16D4:  MOVWF  1A
....................    lcd_putc('\f'); 
16D6:  MOVLW  0C
16D8:  MOVWF  x83
16DA:  RCALL  1508
....................    lcd_gotoxy (1, 1) ; 
16DC:  MOVLW  01
16DE:  MOVWF  x84
16E0:  MOVWF  x85
16E2:  RCALL  14E6
....................    printf (lcd_putc, "Dato Recibido "); 
16E4:  MOVLW  AE
16E6:  MOVWF  FF6
16E8:  MOVLW  13
16EA:  MOVWF  FF7
16EC:  RCALL  154C
....................    lcd_gotoxy (1, 2) ; 
16EE:  MOVLW  01
16F0:  MOVWF  x84
16F2:  MOVLW  02
16F4:  MOVWF  x85
16F6:  RCALL  14E6
....................     
....................       for(d=0;d<=e;d++) { 
16F8:  CLRF   1B
16FA:  MOVF   1B,W
16FC:  SUBWF  1A,W
16FE:  BNC   1748
....................       fputc(dato[d]); 
1700:  CLRF   03
1702:  MOVF   1B,W
1704:  ADDLW  1D
1706:  MOVWF  FE9
1708:  MOVLW  00
170A:  ADDWFC 03,W
170C:  MOVWF  FEA
170E:  MOVFF  FEF,81
1712:  MOVF   x81,W
1714:  BRA    156C
....................     
....................    printf (lcd_putc, "%c",dato[d]); 
1716:  CLRF   03
1718:  MOVF   1B,W
171A:  ADDLW  1D
171C:  MOVWF  FE9
171E:  MOVLW  00
1720:  ADDWFC 03,W
1722:  MOVWF  FEA
1724:  MOVFF  FEF,81
1728:  MOVFF  81,83
172C:  RCALL  1508
....................       if(dato[d]=='#'){ 
172E:  CLRF   03
1730:  MOVF   1B,W
1732:  ADDLW  1D
1734:  MOVWF  FE9
1736:  MOVLW  00
1738:  ADDWFC 03,W
173A:  MOVWF  FEA
173C:  MOVF   FEF,W
173E:  SUBLW  23
1740:  BNZ   1744
....................       e=0; 
1742:  CLRF   1A
....................       } 
....................      }  
1744:  INCF   1B,F
1746:  BRA    16FA
....................    } 
....................         x=0; 
1748:  CLRF   19
....................          
....................         } 
....................          
....................         if(dato[1]=='e'){ 
174A:  MOVF   1E,W
174C:  SUBLW  65
174E:  BNZ   17B4
....................          
....................         for(n=0;n<=4720;n++) { 
1750:  CLRF   17
1752:  CLRF   16
1754:  MOVF   17,W
1756:  SUBLW  12
1758:  BNC   178E
175A:  BNZ   1762
175C:  MOVF   16,W
175E:  SUBLW  70
1760:  BNC   178E
....................          set_pwm1_duty(co[n]); 
1762:  MOVFF  17,03
1766:  MOVF   16,W
1768:  MOVFF  FF2,81
176C:  BCF    FF2.7
176E:  MOVFF  17,FF7
1772:  CALL   00B4
1776:  BTFSC  x81.7
1778:  BSF    FF2.7
177A:  MOVWF  FBE
....................          delay_us(130); 
177C:  MOVLW  D8
177E:  MOVWF  00
1780:  DECFSZ 00,F
1782:  BRA    1780
1784:  NOP   
....................          } 
1786:  INCF   16,F
1788:  BTFSC  FD8.2
178A:  INCF   17,F
178C:  BRA    1754
....................          set_pwm1_duty(0); 
178E:  CLRF   FBE
....................         output_high(PIN_b7); 
1790:  BCF    F93.7
1792:  BSF    F8A.7
....................         delay_ms(500); 
1794:  MOVLW  02
1796:  MOVWF  x81
1798:  MOVLW  FA
179A:  MOVWF  x84
179C:  RCALL  13BE
179E:  DECFSZ x81,F
17A0:  BRA    1798
....................         output_low(PIN_b7); 
17A2:  BCF    F93.7
17A4:  BCF    F8A.7
....................         delay_ms(500); 
17A6:  MOVLW  02
17A8:  MOVWF  x81
17AA:  MOVLW  FA
17AC:  MOVWF  x84
17AE:  RCALL  13BE
17B0:  DECFSZ x81,F
17B2:  BRA    17AA
....................          
....................         } 
....................    
....................   set_pwm1_duty(0); 
17B4:  CLRF   FBE
....................    
.................... } 
17B6:  BRA    16C4
.................... } 
17B8:  SLEEP 

Configuration Fuses:
   Word  1: CC27   IESO FCMEN HS PLL12 CPUDIV1 USBDIV
   Word  2: 1E3E   BROWNOUT NOWDT BORV20 PUT WDT32768 VREGEN
   Word  3: 8700   PBADEN CCP2C1 MCLR LPT1OSC
   Word  4: 0081   STVREN NODEBUG NOLVP NOXINST NOICPRT
   Word  5: C00F   NOPROTECT NOCPD NOCPB
   Word  6: E00F   NOWRT NOWRTD NOWRTC NOWRTB
   Word  7: 400F   NOEBTR NOEBTRB
