CCS PCH C Compiler, Version 4.104, 5967               16-sep-15 11:29

               Filename: C:\Users\JAIME DIAZ\Desktop\LABORATORIOS UD\PROGRAMAS PIC\modulacion.lst

               ROM used: 1778 bytes (5%)
                         Largest free fragment is 30986
               RAM used: 36 (2%) at main() level
                         59 (3%) worst case
               Stack:    13 worst case (6 in main + 7 for interrupts)

*
0000:  GOTO   050A
*
0008:  MOVWF  04
000A:  MOVFF  FD8,05
000E:  MOVFF  FE0,06
0012:  MOVLB  0
0014:  MOVFF  FE9,0C
0018:  MOVFF  FEA,07
001C:  MOVFF  FE1,08
0020:  MOVFF  FE2,09
0024:  MOVFF  FD9,0A
0028:  MOVFF  FDA,0B
002C:  MOVFF  FF3,12
0030:  MOVFF  FF4,13
0034:  MOVFF  FFA,14
0038:  MOVFF  00,0E
003C:  MOVFF  01,0F
0040:  MOVFF  02,10
0044:  MOVFF  03,11
0048:  BTFSS  FF2.5
004A:  GOTO   0054
004E:  BTFSC  FF2.2
0050:  GOTO   042E
0054:  BTFSS  FF2.4
0056:  GOTO   0060
005A:  BTFSC  FF2.1
005C:  GOTO   020A
0060:  MOVFF  0E,00
0064:  MOVFF  0F,01
0068:  MOVFF  10,02
006C:  MOVFF  11,03
0070:  MOVFF  0C,FE9
0074:  MOVFF  07,FEA
0078:  BSF    07.7
007A:  MOVFF  08,FE1
007E:  MOVFF  09,FE2
0082:  MOVFF  0A,FD9
0086:  MOVFF  0B,FDA
008A:  MOVFF  12,FF3
008E:  MOVFF  13,FF4
0092:  MOVFF  14,FFA
0096:  MOVF   04,W
0098:  MOVFF  06,FE0
009C:  MOVFF  05,FD8
00A0:  RETFIE 0
.................... #include <MODULACION.h> 
.................... #include <18F4550.h> 
.................... //////// Standard Header file for the PIC18F4550 device //////////////// 
.................... #device PIC18F4550 
.................... #list 
....................  
....................  
.................... #FUSES NOWDT                    //No Watch Dog Timer 
.................... #FUSES WDT128                   //Watch Dog Timer uses 1:128 Postscale 
.................... #FUSES PLL12                    //Divide By 12(48MHz oscillator input) 
.................... #FUSES CPUDIV4                  //System Clock by 4 
.................... #FUSES USBDIV                   //USB clock source comes from PLL divide by 2 
.................... #FUSES XT                       //Crystal osc <= 4mhz for PCM/PCH , 3mhz to 10 mhz for PCD 
.................... #FUSES FCMEN                    //Fail-safe clock monitor enabled 
.................... #FUSES IESO                     //Internal External Switch Over mode enabled 
.................... #FUSES NOPUT                    //No Power Up Timer 
.................... #FUSES NOBROWNOUT               //No brownout reset 
.................... #FUSES BORV20                   //Brownout reset at 2.0V 
.................... #FUSES VREGEN                   //USB voltage regulator enabled 
.................... #FUSES PBADEN                   //PORTB pins are configured as analog input channels on RESET 
.................... #FUSES LPT1OSC                  //Timer1 configured for low-power operation 
.................... #FUSES MCLR                     //Master Clear pin enabled 
.................... #FUSES STVREN                   //Stack full/underflow will cause reset 
.................... #FUSES NOLVP                    //No low voltage prgming, B3(PIC16) or B5(PIC18) used for I/O 
.................... #FUSES ICPRT                    //ICPRT enabled 
.................... #FUSES NOXINST                  //Extended set extension and Indexed Addressing mode disabled (Legacy mode) 
.................... #FUSES NODEBUG                  //No Debug mode for ICD 
.................... #FUSES NOPROTECT                //Code not protected from reading 
.................... #FUSES NOCPB                    //No Boot Block code protection 
.................... #FUSES NOCPD                    //No EE protection 
.................... #FUSES NOWRT                    //Program memory not write protected 
.................... #FUSES NOWRTC                   //configuration not registers write protected 
.................... #FUSES NOWRTB                   //Boot block not write protected 
.................... #FUSES NOWRTD                   //Data EEPROM not write protected 
.................... #FUSES NOEBTR                   //Memory not protected from table reads 
.................... #FUSES NOEBTRB                  //Boot block not protected from table reads 
....................  
.................... #use delay(crystal=20000000,  clock=5000000) 
....................  
....................  
....................  
....................  
.................... #fuses hs,nowdt,nolvp,noput,put,noprotect,nodebug,cpudiv1,usbdiv 
.................... #use delay(clock=20000000)  
*
0180:  CLRF   FEA
0182:  MOVLW  32
0184:  MOVWF  FE9
0186:  MOVF   FEF,W
0188:  BZ    01A4
018A:  MOVLW  06
018C:  MOVWF  01
018E:  CLRF   00
0190:  DECFSZ 00,F
0192:  BRA    0190
0194:  DECFSZ 01,F
0196:  BRA    018E
0198:  MOVLW  7B
019A:  MOVWF  00
019C:  DECFSZ 00,F
019E:  BRA    019C
01A0:  DECFSZ FEF,F
01A2:  BRA    018A
01A4:  RETLW  00
.................... #include <lcd.c> 
.................... /////////////////////////////////////////////////////////////////////////////// 
.................... ////                             LCD.C                                     //// 
.................... ////                 Driver for common LCD modules                         //// 
.................... ////                                                                       //// 
.................... ////  lcd_init()   Must be called before any other function.               //// 
.................... ////                                                                       //// 
.................... ////  lcd_putc(c)  Will display c on the next position of the LCD.         //// 
.................... ////                     The following have special meaning:               //// 
.................... ////                      \f  Clear display                                //// 
.................... ////                      \n  Go to start of second line                   //// 
.................... ////                      \b  Move back one position                       //// 
.................... ////                                                                       //// 
.................... ////  lcd_gotoxy(x,y) Set write position on LCD (upper left is 1,1)        //// 
.................... ////                                                                       //// 
.................... ////  lcd_getc(x,y)   Returns character at position x,y on LCD             //// 
.................... ////                                                                       //// 
.................... ////  CONFIGURATION                                                        //// 
.................... ////  The LCD can be configured in one of two ways: a.) port access or     //// 
.................... ////  b.) pin access.  Port access requires the entire 7 bit interface     //// 
.................... ////  connected to one GPIO port, and the data bits (D4:D7 of the LCD)     //// 
.................... ////  connected to sequential pins on the GPIO.  Pin access                //// 
.................... ////  has no requirements, all 7 bits of the control interface can         //// 
.................... ////  can be connected to any GPIO using several ports.                    //// 
.................... ////                                                                       //// 
.................... ////  To use port access, #define LCD_DATA_PORT to the SFR location of     //// 
.................... ////  of the GPIO port that holds the interface, -AND- edit LCD_PIN_MAP    //// 
.................... ////  of this file to configure the pin order.  If you are using a         //// 
.................... ////  baseline PIC (PCB), then LCD_OUTPUT_MAP and LCD_INPUT_MAP also must  //// 
.................... ////  be defined.                                                          //// 
.................... ////                                                                       //// 
.................... ////  Example of port access:                                              //// 
.................... ////     #define LCD_DATA_PORT getenv("SFR:PORTD")                         //// 
.................... ////                                                                       //// 
.................... ////  To use pin access, the following pins must be defined:               //// 
.................... ////     LCD_ENABLE_PIN                                                    //// 
.................... ////     LCD_RS_PIN                                                        //// 
.................... ////     LCD_RW_PIN                                                        //// 
.................... ////     LCD_DATA4                                                         //// 
.................... ////     LCD_DATA5                                                         //// 
.................... ////     LCD_DATA6                                                         //// 
.................... ////     LCD_DATA7                                                         //// 
.................... ////                                                                       //// 
.................... ////  Example of pin access:                                               //// 
.................... ////     #define LCD_ENABLE_PIN  PIN_E0                                    //// 
.................... ////     #define LCD_RS_PIN      PIN_E1                                    //// 
.................... ////     #define LCD_RW_PIN      PIN_E2                                    //// 
.................... ////     #define LCD_DATA4       PIN_D4                                    //// 
.................... ////     #define LCD_DATA5       PIN_D5                                    //// 
.................... ////     #define LCD_DATA6       PIN_D6                                    //// 
.................... ////     #define LCD_DATA7       PIN_D7                                    //// 
.................... ////                                                                       //// 
.................... /////////////////////////////////////////////////////////////////////////////// 
.................... ////        (C) Copyright 1996,2009 Custom Computer Services           //// 
.................... //// This source code may only be used by licensed users of the CCS C  //// 
.................... //// compiler.  This source code may only be distributed to other      //// 
.................... //// licensed users of the CCS C compiler.  No other use, reproduction //// 
.................... //// or distribution is permitted without written permission.          //// 
.................... //// Derivative programs created using this software in object code    //// 
.................... //// form are not restricted in any way.                               //// 
.................... /////////////////////////////////////////////////////////////////////////// 
....................  
.................... // define the pinout. 
.................... // only required if port access is being used. 
.................... typedef struct   
.................... {                            // This structure is overlayed 
....................    BOOLEAN enable;           // on to an I/O port to gain 
....................    BOOLEAN rs;               // access to the LCD pins. 
....................    BOOLEAN rw;               // The bits are allocated from 
....................    BOOLEAN unused;           // low order up.  ENABLE will 
....................    int     data : 4;         // be LSB pin of that port. 
....................   #if defined(__PCD__)       // The port used will be LCD_DATA_PORT. 
....................    int    reserved: 8; 
....................   #endif 
.................... } LCD_PIN_MAP; 
....................  
.................... // this is to improve compatability with previous LCD drivers that accepted 
.................... // a define labeled 'use_portb_lcd' that configured the LCD onto port B. 
.................... #if ((defined(use_portb_lcd)) && (use_portb_lcd==TRUE)) 
....................  #define LCD_DATA_PORT getenv("SFR:PORTB") 
.................... #endif 
....................  
.................... #if defined(__PCB__) 
....................    // these definitions only need to be modified for baseline PICs. 
....................    // all other PICs use LCD_PIN_MAP or individual LCD_xxx pin definitions. 
.................... /*                                    EN, RS,   RW,   UNUSED,  DATA  */ 
....................  const LCD_PIN_MAP LCD_OUTPUT_MAP =  {0,  0,    0,    0,       0}; 
....................  const LCD_PIN_MAP LCD_INPUT_MAP =   {0,  0,    0,    0,       0xF}; 
.................... #endif 
....................  
.................... ////////////////////// END CONFIGURATION /////////////////////////////////// 
....................  
.................... #ifndef LCD_ENABLE_PIN 
....................    #define lcd_output_enable(x) lcdlat.enable=x 
....................    #define lcd_enable_tris()   lcdtris.enable=0 
.................... #else 
....................    #define lcd_output_enable(x) output_bit(LCD_ENABLE_PIN, x) 
....................    #define lcd_enable_tris()  output_drive(LCD_ENABLE_PIN) 
.................... #endif 
....................  
.................... #ifndef LCD_RS_PIN 
....................    #define lcd_output_rs(x) lcdlat.rs=x 
....................    #define lcd_rs_tris()   lcdtris.rs=0 
.................... #else 
....................    #define lcd_output_rs(x) output_bit(LCD_RS_PIN, x) 
....................    #define lcd_rs_tris()  output_drive(LCD_RS_PIN) 
.................... #endif 
....................  
.................... #ifndef LCD_RW_PIN 
....................    #define lcd_output_rw(x) lcdlat.rw=x 
....................    #define lcd_rw_tris()   lcdtris.rw=0 
.................... #else 
....................    #define lcd_output_rw(x) output_bit(LCD_RW_PIN, x) 
....................    #define lcd_rw_tris()  output_drive(LCD_RW_PIN) 
.................... #endif 
....................  
.................... // original version of this library incorrectly labeled LCD_DATA0 as LCD_DATA4, 
.................... // LCD_DATA1 as LCD_DATA5, and so on.  this block of code makes the driver 
.................... // compatible with any code written for the original library 
.................... #if (defined(LCD_DATA0) && defined(LCD_DATA1) && defined(LCD_DATA2) && defined(LCD_DATA3) && !defined(LCD_DATA4) && !defined(LCD_DATA5) && !defined(LCD_DATA6) && !defined(LCD_DATA7)) 
....................    #define  LCD_DATA4    LCD_DATA0 
....................    #define  LCD_DATA5    LCD_DATA1 
....................    #define  LCD_DATA6    LCD_DATA2 
....................    #define  LCD_DATA7    LCD_DATA3 
.................... #endif 
....................  
.................... #ifndef LCD_DATA4 
.................... #ifndef LCD_DATA_PORT 
....................    #if defined(__PCB__) 
....................       #define LCD_DATA_PORT      0x06     //portb 
....................       #define set_tris_lcd(x)   set_tris_b(x) 
....................    #else 
....................      #if defined(PIN_D0) 
....................       #define LCD_DATA_PORT      getenv("SFR:PORTD")     //portd 
....................      #else 
....................       #define LCD_DATA_PORT      getenv("SFR:PORTB")     //portb 
....................      #endif 
....................    #endif    
.................... #endif 
....................  
.................... #if defined(__PCB__) 
....................    LCD_PIN_MAP lcd, lcdlat; 
....................    #byte lcd = LCD_DATA_PORT 
....................    #byte lcdlat = LCD_DATA_PORT 
.................... #elif defined(__PCM__) 
....................    LCD_PIN_MAP lcd, lcdlat, lcdtris; 
....................    #byte lcd = LCD_DATA_PORT 
....................    #byte lcdlat = LCD_DATA_PORT 
....................    #byte lcdtris = LCD_DATA_PORT+0x80 
.................... #elif defined(__PCH__) 
....................    LCD_PIN_MAP lcd, lcdlat, lcdtris; 
....................    #byte lcd = LCD_DATA_PORT 
....................    #byte lcdlat = LCD_DATA_PORT+9 
....................    #byte lcdtris = LCD_DATA_PORT+0x12 
.................... #elif defined(__PCD__) 
....................    LCD_PIN_MAP lcd, lcdlat, lcdtris; 
....................    #word lcd = LCD_DATA_PORT 
....................    #word lcdlat = LCD_DATA_PORT+2 
....................    #word lcdtris = LCD_DATA_PORT-0x02 
.................... #endif 
.................... #endif   //LCD_DATA4 not defined 
....................  
.................... #ifndef LCD_TYPE 
....................    #define LCD_TYPE 2           // 0=5x7, 1=5x10, 2=2 lines 
.................... #endif 
....................  
.................... #ifndef LCD_LINE_TWO 
....................    #define LCD_LINE_TWO 0x40    // LCD RAM address for the second line 
.................... #endif 
....................  
.................... BYTE const LCD_INIT_STRING[4] = {0x20 | (LCD_TYPE << 2), 0xc, 1, 6}; 
....................                              // These bytes need to be sent to the LCD 
....................                              // to start it up. 
....................  
.................... BYTE lcd_read_nibble(void); 
....................  
.................... BYTE lcd_read_byte(void) 
.................... { 
....................    BYTE low,high; 
....................  
....................  #if defined(__PCB__) 
....................    set_tris_lcd(LCD_INPUT_MAP); 
....................  #else 
....................   #if (defined(LCD_DATA4) && defined(LCD_DATA5) && defined(LCD_DATA6) && defined(LCD_DATA7)) 
....................    output_float(LCD_DATA4); 
....................    output_float(LCD_DATA5); 
....................    output_float(LCD_DATA6); 
....................    output_float(LCD_DATA7); 
....................   #else 
....................    lcdtris.data = 0xF; 
*
00CC:  MOVLW  0F
00CE:  ANDWF  F95,W
00D0:  IORLW  F0
00D2:  MOVWF  F95
....................   #endif 
....................  #endif 
....................          
....................    lcd_output_rw(1); 
00D4:  BSF    F8C.2
....................    delay_cycles(1); 
00D6:  NOP   
....................    lcd_output_enable(1); 
00D8:  BSF    F8C.0
....................    delay_cycles(1); 
00DA:  NOP   
....................    high = lcd_read_nibble(); 
00DC:  RCALL  00C0
00DE:  MOVFF  01,39
....................        
....................    lcd_output_enable(0); 
00E2:  BCF    F8C.0
....................    delay_cycles(1); 
00E4:  NOP   
....................    lcd_output_enable(1); 
00E6:  BSF    F8C.0
....................    delay_us(1); 
00E8:  BRA    00EA
00EA:  BRA    00EC
00EC:  NOP   
....................    low = lcd_read_nibble(); 
00EE:  RCALL  00C0
00F0:  MOVFF  01,38
....................        
....................    lcd_output_enable(0); 
00F4:  BCF    F8C.0
....................  
....................  #if defined(__PCB__) 
....................    set_tris_lcd(LCD_INPUT_MAP); 
....................  #else 
....................   #if (defined(LCD_DATA4) && defined(LCD_DATA5) && defined(LCD_DATA6) && defined(LCD_DATA7)) 
....................    output_drive(LCD_DATA4); 
....................    output_drive(LCD_DATA5); 
....................    output_drive(LCD_DATA6); 
....................    output_drive(LCD_DATA7); 
....................   #else 
....................    lcdtris.data = 0x0; 
00F6:  MOVLW  0F
00F8:  ANDWF  F95,W
00FA:  MOVWF  F95
....................   #endif 
....................  #endif 
....................  
....................    return( (high<<4) | low); 
00FC:  SWAPF  39,W
00FE:  MOVWF  00
0100:  MOVLW  F0
0102:  ANDWF  00,F
0104:  MOVF   00,W
0106:  IORWF  38,W
0108:  MOVWF  01
.................... } 
010A:  RETLW  00
....................  
.................... BYTE lcd_read_nibble(void) 
.................... { 
....................   #if (defined(LCD_DATA4) && defined(LCD_DATA5) && defined(LCD_DATA6) && defined(LCD_DATA7)) 
....................    BYTE n = 0x00; 
....................  
....................    /* Read the data port */ 
....................    n |= input(LCD_DATA4); 
....................    n |= input(LCD_DATA5) << 1; 
....................    n |= input(LCD_DATA6) << 2; 
....................    n |= input(LCD_DATA7) << 3; 
....................     
....................    return(n); 
....................   #else 
....................    return(lcd.data); 
*
00C0:  MOVF   F83,W
00C2:  MOVWF  00
00C4:  SWAPF  00,W
00C6:  ANDLW  0F
00C8:  MOVWF  01
....................   #endif 
.................... } 
00CA:  RETLW  00
....................  
.................... void lcd_send_nibble(BYTE n) 
.................... { 
....................   #if (defined(LCD_DATA4) && defined(LCD_DATA5) && defined(LCD_DATA6) && defined(LCD_DATA7)) 
....................    /* Write to the data port */ 
....................    output_bit(LCD_DATA4, bit_test(n, 0)); 
....................    output_bit(LCD_DATA5, bit_test(n, 1)); 
....................    output_bit(LCD_DATA6, bit_test(n, 2)); 
....................    output_bit(LCD_DATA7, bit_test(n, 3)); 
....................   #else       
....................    lcdlat.data = n; 
*
010C:  SWAPF  39,W
010E:  ANDLW  F0
0110:  MOVWF  00
0112:  MOVLW  0F
0114:  ANDWF  F8C,W
0116:  IORWF  00,W
0118:  MOVWF  F8C
....................   #endif 
....................        
....................    delay_cycles(1); 
011A:  NOP   
....................    lcd_output_enable(1); 
011C:  BSF    F8C.0
....................    delay_us(2); 
011E:  MOVLW  03
0120:  MOVWF  00
0122:  DECFSZ 00,F
0124:  BRA    0122
....................    lcd_output_enable(0); 
0126:  BCF    F8C.0
.................... } 
0128:  RETLW  00
....................  
.................... void lcd_send_byte(BYTE address, BYTE n) 
.................... { 
....................    lcd_output_rs(0); 
012A:  BCF    F8C.1
....................    while ( bit_test(lcd_read_byte(),7) ) ; 
012C:  RCALL  00CC
012E:  MOVFF  01,38
0132:  BTFSC  01.7
0134:  BRA    012C
....................    lcd_output_rs(address); 
0136:  BCF    F8C.1
0138:  BTFSC  36.0
013A:  BSF    F8C.1
....................    delay_cycles(1); 
013C:  NOP   
....................    lcd_output_rw(0); 
013E:  BCF    F8C.2
....................    delay_cycles(1); 
0140:  NOP   
....................    lcd_output_enable(0); 
0142:  BCF    F8C.0
....................    lcd_send_nibble(n >> 4); 
0144:  SWAPF  37,W
0146:  MOVWF  38
0148:  MOVLW  0F
014A:  ANDWF  38,F
014C:  MOVFF  38,39
0150:  RCALL  010C
....................    lcd_send_nibble(n & 0xf); 
0152:  MOVF   37,W
0154:  ANDLW  0F
0156:  MOVWF  38
0158:  MOVWF  39
015A:  RCALL  010C
.................... } 
015C:  RETLW  00
....................  
.................... void lcd_init(void)  
.................... { 
....................    BYTE i; 
....................  
....................  #if defined(__PCB__) 
....................    set_tris_lcd(LCD_OUTPUT_MAP); 
....................  #else 
....................   #if (defined(LCD_DATA4) && defined(LCD_DATA5) && defined(LCD_DATA6) && defined(LCD_DATA7)) 
....................    output_drive(LCD_DATA4); 
....................    output_drive(LCD_DATA5); 
....................    output_drive(LCD_DATA6); 
....................    output_drive(LCD_DATA7); 
....................   #else 
....................    lcdtris.data = 0x0; 
*
046E:  MOVLW  0F
0470:  ANDWF  F95,W
0472:  MOVWF  F95
....................   #endif 
....................    lcd_enable_tris(); 
0474:  BCF    F95.0
....................    lcd_rs_tris(); 
0476:  BCF    F95.1
....................    lcd_rw_tris(); 
0478:  BCF    F95.2
....................  #endif 
....................  
....................    lcd_output_rs(0); 
047A:  BCF    F8C.1
....................    lcd_output_rw(0); 
047C:  BCF    F8C.2
....................    lcd_output_enable(0); 
047E:  BCF    F8C.0
0480:  CLRF   16
0482:  BTFSC  FF2.7
0484:  BSF    16.7
0486:  BCF    FF2.7
....................      
....................    delay_ms(15); 
0488:  MOVLW  0F
048A:  MOVWF  32
048C:  RCALL  0180
048E:  BTFSC  16.7
0490:  BSF    FF2.7
....................    for(i=1;i<=3;++i) 
0492:  MOVLW  01
0494:  MOVWF  23
0496:  MOVF   23,W
0498:  SUBLW  03
049A:  BNC   04C4
049C:  CLRF   16
049E:  BTFSC  FF2.7
04A0:  BSF    16.7
04A2:  BCF    FF2.7
....................    { 
....................        lcd_send_nibble(3); 
04A4:  MOVLW  03
04A6:  MOVWF  39
04A8:  RCALL  010C
04AA:  BTFSC  16.7
04AC:  BSF    FF2.7
04AE:  CLRF   16
04B0:  BTFSC  FF2.7
04B2:  BSF    16.7
04B4:  BCF    FF2.7
....................        delay_ms(5); 
04B6:  MOVLW  05
04B8:  MOVWF  32
04BA:  RCALL  0180
04BC:  BTFSC  16.7
04BE:  BSF    FF2.7
....................    } 
04C0:  INCF   23,F
04C2:  BRA    0496
04C4:  CLRF   16
04C6:  BTFSC  FF2.7
04C8:  BSF    16.7
04CA:  BCF    FF2.7
....................      
....................    lcd_send_nibble(2); 
04CC:  MOVLW  02
04CE:  MOVWF  39
04D0:  RCALL  010C
04D2:  BTFSC  16.7
04D4:  BSF    FF2.7
....................    for(i=0;i<=3;++i) 
04D6:  CLRF   23
04D8:  MOVF   23,W
04DA:  SUBLW  03
04DC:  BNC   0506
....................       lcd_send_byte(0,LCD_INIT_STRING[i]); 
04DE:  CLRF   03
04E0:  MOVF   23,W
04E2:  MOVFF  FF2,24
04E6:  BCF    FF2.7
04E8:  RCALL  00A2
04EA:  BTFSC  24.7
04EC:  BSF    FF2.7
04EE:  MOVWF  24
04F0:  CLRF   16
04F2:  BTFSC  FF2.7
04F4:  BSF    16.7
04F6:  BCF    FF2.7
04F8:  CLRF   36
04FA:  MOVWF  37
04FC:  RCALL  012A
04FE:  BTFSC  16.7
0500:  BSF    FF2.7
0502:  INCF   23,F
0504:  BRA    04D8
.................... } 
0506:  GOTO   0546 (RETURN)
....................  
.................... void lcd_gotoxy(BYTE x, BYTE y) 
.................... { 
....................    BYTE address; 
....................  
....................    if(y!=1) 
*
015E:  DECFSZ 33,W
0160:  BRA    0164
0162:  BRA    016A
....................       address=LCD_LINE_TWO; 
0164:  MOVLW  40
0166:  MOVWF  34
....................    else 
0168:  BRA    016C
....................       address=0; 
016A:  CLRF   34
....................       
....................    address+=x-1; 
016C:  MOVLW  01
016E:  SUBWF  32,W
0170:  ADDWF  34,F
....................    lcd_send_byte(0,0x80|address); 
0172:  MOVF   34,W
0174:  IORLW  80
0176:  MOVWF  35
0178:  CLRF   36
017A:  MOVWF  37
017C:  RCALL  012A
.................... } 
017E:  RETLW  00
....................  
.................... void lcd_putc(char c) 
.................... { 
....................    switch (c) 
....................    { 
*
01A6:  MOVF   31,W
01A8:  XORLW  0C
01AA:  BZ    01B6
01AC:  XORLW  06
01AE:  BZ    01C6
01B0:  XORLW  02
01B2:  BZ    01D2
01B4:  BRA    01DC
....................       case '\f'   :  lcd_send_byte(0,1); 
01B6:  CLRF   36
01B8:  MOVLW  01
01BA:  MOVWF  37
01BC:  RCALL  012A
....................                      delay_ms(2); 
01BE:  MOVLW  02
01C0:  MOVWF  32
01C2:  RCALL  0180
....................                      break; 
01C4:  BRA    01E8
....................                       
....................       case '\n'   : lcd_gotoxy(1,2);        break; 
01C6:  MOVLW  01
01C8:  MOVWF  32
01CA:  MOVLW  02
01CC:  MOVWF  33
01CE:  RCALL  015E
01D0:  BRA    01E8
....................       
....................       case '\b'   : lcd_send_byte(0,0x10);  break; 
01D2:  CLRF   36
01D4:  MOVLW  10
01D6:  MOVWF  37
01D8:  RCALL  012A
01DA:  BRA    01E8
....................       
....................       default     : lcd_send_byte(1,c);     break; 
01DC:  MOVLW  01
01DE:  MOVWF  36
01E0:  MOVFF  31,37
01E4:  RCALL  012A
01E6:  BRA    01E8
....................    } 
.................... } 
01E8:  RETLW  00
....................   
.................... char lcd_getc(BYTE x, BYTE y) 
.................... { 
....................    char value; 
....................  
....................    lcd_gotoxy(x,y); 
....................    while ( bit_test(lcd_read_byte(),7) ); // wait until busy flag is low 
....................    lcd_output_rs(1); 
....................    value = lcd_read_byte(); 
....................    lcd_output_rs(0); 
....................     
....................    return(value); 
.................... } 
....................  
.................... #define L_TO_H 
....................  
.................... //#DEVICE ADC=10 
.................... INT valor, pwmh = 0, x = 0, y = 0,z=0,n=0; 
....................     
.................... INT16 time = 255, subida = 0, bajada = 0; 
....................  
.................... /* 
.................... frecuencia =10k 
.................... tiempo deseado= 1/(frecuencia*2) 
.................... cristal/ reloj = 20Mhz 
.................... division de crital=t2_div_b_#/cristal 
.................... setup_timer_1(t1_internal|t1_div_by_#); 
.................... set_timer1(time); 
....................  
.................... Time = 65536-((tiempo requerido)/(4/division de crital)) 
.................... frecuencia =(1/ perido PWM)*2  
.................... */ 
.................... #INT_EXT 
.................... void EXT_ISR(VOID) 
.................... { 
.................... disable_interrupts (INT_TIMER0); // inavilita la interruccion por derrame 
*
020A:  BCF    FF2.5
.................... disable_interrupts (INT_ext); 
020C:  BCF    FF2.4
.................... disable_interrupts (global); 
020E:  BCF    FF2.6
0210:  BCF    FF2.7
0212:  BTFSC  FF2.7
0214:  BRA    0210
.................... output_low(pin_b7); 
0216:  BCF    F93.7
0218:  BCF    F8A.7
....................  
.................... WHILE (input (pin_b0) == 1){ 
021A:  BSF    F93.0
021C:  BTFSS  F81.0
021E:  BRA    0394
....................  
....................  
....................  
.................... if ((input (pin_b0) == 1)&&(z==0)){ 
0220:  BSF    F93.0
0222:  BTFSS  F81.0
0224:  BRA    02F8
0226:  MOVF   1B,F
0228:  BTFSS  FD8.2
022A:  BRA    02F8
....................  
.................... if(input (pin_b4) == 1){ 
022C:  BSF    F93.4
022E:  BTFSS  F81.4
0230:  BRA    0244
....................  y++; 
0232:  INCF   1A,F
....................  if(y==4){ 
0234:  MOVF   1A,W
0236:  SUBLW  04
0238:  BNZ   023C
....................  y=0; 
023A:  CLRF   1A
....................  } 
....................   WHILE (input (pin_b4) == 1){} 
023C:  BSF    F93.4
023E:  BTFSS  F81.4
0240:  BRA    0244
0242:  BRA    023C
.................... } 
.................... IF (y == 0) 
0244:  MOVF   1A,F
0246:  BNZ   0270
....................       { 
....................         
....................          lcd_gotoxy (1, 1) ; 
0248:  MOVLW  01
024A:  MOVWF  32
024C:  MOVWF  33
024E:  RCALL  015E
....................          printf (lcd_putc, "@   1K HZ"); 
0250:  MOVLW  A2
0252:  MOVWF  FF6
0254:  MOVLW  03
0256:  MOVWF  FF7
0258:  RCALL  01EA
....................          lcd_gotoxy (1, 2) ; 
025A:  MOVLW  01
025C:  MOVWF  32
025E:  MOVLW  02
0260:  MOVWF  33
0262:  RCALL  015E
....................          printf (lcd_putc, "   2.5K Hz"); 
0264:  MOVLW  AC
0266:  MOVWF  FF6
0268:  MOVLW  03
026A:  MOVWF  FF7
026C:  RCALL  01EA
....................          }else IF (y == 1) { 
026E:  BRA    02F6
0270:  DECFSZ 1A,W
0272:  BRA    029C
....................          
....................          lcd_gotoxy (1, 1) ; 
0274:  MOVLW  01
0276:  MOVWF  32
0278:  MOVWF  33
027A:  RCALL  015E
....................          printf (lcd_putc, "   1K Hz"); 
027C:  MOVLW  B8
027E:  MOVWF  FF6
0280:  MOVLW  03
0282:  MOVWF  FF7
0284:  RCALL  01EA
....................          lcd_gotoxy (1, 2) ; 
0286:  MOVLW  01
0288:  MOVWF  32
028A:  MOVLW  02
028C:  MOVWF  33
028E:  RCALL  015E
....................          printf (lcd_putc, "@   2.5K Hz"); 
0290:  MOVLW  C2
0292:  MOVWF  FF6
0294:  MOVLW  03
0296:  MOVWF  FF7
0298:  RCALL  01EA
....................          }else IF (y == 2) { 
029A:  BRA    02F6
029C:  MOVF   1A,W
029E:  SUBLW  02
02A0:  BNZ   02CA
....................          
....................          lcd_gotoxy (1, 1) ; 
02A2:  MOVLW  01
02A4:  MOVWF  32
02A6:  MOVWF  33
02A8:  RCALL  015E
....................          printf (lcd_putc, "@   4K Hz"); 
02AA:  MOVLW  CE
02AC:  MOVWF  FF6
02AE:  MOVLW  03
02B0:  MOVWF  FF7
02B2:  RCALL  01EA
....................          lcd_gotoxy (1, 2) ; 
02B4:  MOVLW  01
02B6:  MOVWF  32
02B8:  MOVLW  02
02BA:  MOVWF  33
02BC:  RCALL  015E
....................          printf (lcd_putc, "   10K Hz"); 
02BE:  MOVLW  D8
02C0:  MOVWF  FF6
02C2:  MOVLW  03
02C4:  MOVWF  FF7
02C6:  RCALL  01EA
....................          }else IF (y == 3) { 
02C8:  BRA    02F6
02CA:  MOVF   1A,W
02CC:  SUBLW  03
02CE:  BNZ   02F6
....................          
....................          lcd_gotoxy (1, 1) ; 
02D0:  MOVLW  01
02D2:  MOVWF  32
02D4:  MOVWF  33
02D6:  RCALL  015E
....................          printf (lcd_putc, "   4K Hz"); 
02D8:  MOVLW  E2
02DA:  MOVWF  FF6
02DC:  MOVLW  03
02DE:  MOVWF  FF7
02E0:  RCALL  01EA
....................          lcd_gotoxy (1, 2) ; 
02E2:  MOVLW  01
02E4:  MOVWF  32
02E6:  MOVLW  02
02E8:  MOVWF  33
02EA:  RCALL  015E
....................          printf (lcd_putc, "@   10K Hz"); 
02EC:  MOVLW  EC
02EE:  MOVWF  FF6
02F0:  MOVLW  03
02F2:  MOVWF  FF7
02F4:  RCALL  01EA
....................       } 
....................        
....................    } 
....................    else { 
02F6:  BRA    0374
....................     
....................          lcd_gotoxy (1, 1) ; 
02F8:  MOVLW  01
02FA:  MOVWF  32
02FC:  MOVWF  33
02FE:  RCALL  015E
....................          printf (lcd_putc, "Seleccionó "); 
0300:  MOVLW  F8
0302:  MOVWF  FF6
0304:  MOVLW  03
0306:  MOVWF  FF7
0308:  RCALL  01EA
....................        
....................       IF (y == 0) 
030A:  MOVF   1A,F
030C:  BNZ   0324
....................       { 
....................          lcd_gotoxy (1, 2) ; 
030E:  MOVLW  01
0310:  MOVWF  32
0312:  MOVLW  02
0314:  MOVWF  33
0316:  RCALL  015E
....................          printf (lcd_putc, "   1K HZ"); 
0318:  MOVLW  04
031A:  MOVWF  FF6
031C:  MOVLW  04
031E:  MOVWF  FF7
0320:  RCALL  01EA
....................           
....................          }else IF (y == 1) { 
0322:  BRA    0374
0324:  DECFSZ 1A,W
0326:  BRA    033E
....................        
....................          lcd_gotoxy (1, 2) ; 
0328:  MOVLW  01
032A:  MOVWF  32
032C:  MOVLW  02
032E:  MOVWF  33
0330:  RCALL  015E
....................          printf (lcd_putc, "   2.5K Hz"); 
0332:  MOVLW  0E
0334:  MOVWF  FF6
0336:  MOVLW  04
0338:  MOVWF  FF7
033A:  RCALL  01EA
....................          }else IF (y == 2) { 
033C:  BRA    0374
033E:  MOVF   1A,W
0340:  SUBLW  02
0342:  BNZ   035A
....................         
....................          lcd_gotoxy (1, 2); 
0344:  MOVLW  01
0346:  MOVWF  32
0348:  MOVLW  02
034A:  MOVWF  33
034C:  RCALL  015E
....................          printf (lcd_putc, "   4K Hz"); 
034E:  MOVLW  1A
0350:  MOVWF  FF6
0352:  MOVLW  04
0354:  MOVWF  FF7
0356:  RCALL  01EA
....................       
....................          }else IF (y == 3) { 
0358:  BRA    0374
035A:  MOVF   1A,W
035C:  SUBLW  03
035E:  BNZ   0374
....................          
....................          lcd_gotoxy (1, 2) ; 
0360:  MOVLW  01
0362:  MOVWF  32
0364:  MOVLW  02
0366:  MOVWF  33
0368:  RCALL  015E
....................          printf (lcd_putc, "   10K Hz"); 
036A:  MOVLW  24
036C:  MOVWF  FF6
036E:  MOVLW  04
0370:  MOVWF  FF7
0372:  RCALL  01EA
....................       } 
....................    } 
....................    delay_ms (50); 
0374:  MOVLW  32
0376:  MOVWF  32
0378:  RCALL  0180
....................       lcd_putc ('\f'); 
037A:  MOVLW  0C
037C:  MOVWF  31
037E:  RCALL  01A6
....................        
....................     if(input (pin_b3) == 1){ 
0380:  BSF    F93.3
0382:  BTFSS  F81.3
0384:  BRA    0392
....................       z=1; 
0386:  MOVLW  01
0388:  MOVWF  1B
....................      
....................     WHILE (input (pin_b3) == 1){} 
038A:  BSF    F93.3
038C:  BTFSS  F81.3
038E:  BRA    0392
0390:  BRA    038A
....................       } 
.................... } 
0392:  BRA    021A
....................    enable_interrupts (INT_TIMER0); // avilita la interruccion por derrame 
0394:  BSF    FF2.5
....................    enable_interrupts (INT_ext); 
0396:  BSF    FF2.4
....................    enable_interrupts (global); 
0398:  MOVLW  C0
039A:  IORWF  FF2,F
.................... } 
....................  
....................  
039C:  BCF    FF2.1
039E:  GOTO   0060
.................... #INT_timer0 
.................... void timer0_isr(VOID) 
.................... { 
....................    output_toggle(pin_b7); 
*
042E:  BCF    F93.7
0430:  BTG    F8A.7
....................     
....................     
....................  
....................  
....................  
....................    IF (x == 0) 
0432:  MOVF   19,F
0434:  BNZ   0448
....................    { 
....................       x = 1; 
0436:  MOVLW  01
0438:  MOVWF  19
....................       output_high (pin_b5); 
043A:  BCF    F93.5
043C:  BSF    F8A.5
....................       set_timer0 (subida); // carga timer con 1k 
043E:  MOVFF  20,FD7
0442:  MOVFF  1F,FD6
....................       }ELSE { 
0446:  BRA    0456
....................       x = 0; 
0448:  CLRF   19
....................       output_low (pin_b5); 
044A:  BCF    F93.5
044C:  BCF    F8A.5
....................       set_timer0 (bajada) ; 
044E:  MOVFF  22,FD7
0452:  MOVFF  21,FD6
....................    } 
....................  
....................   //set_timer0 (time) ; 
....................      
.................... } 
....................    
0456:  BCF    FF2.2
0458:  GOTO   0060
.................... void main() 
.................... { 
*
050A:  CLRF   FF8
050C:  BCF    FD0.7
050E:  BSF    07.7
0510:  CLRF   FEA
0512:  CLRF   FE9
0514:  CLRF   18
0516:  CLRF   19
0518:  CLRF   1A
051A:  CLRF   1B
051C:  CLRF   1C
051E:  CLRF   1E
0520:  MOVLW  FF
0522:  MOVWF  1D
0524:  CLRF   20
0526:  CLRF   1F
0528:  CLRF   22
052A:  CLRF   21
052C:  MOVF   FC1,W
052E:  ANDLW  C0
0530:  IORLW  0F
0532:  MOVWF  FC1
0534:  MOVLW  07
0536:  MOVWF  FB4
....................     
....................     
....................    set_tris_a (0xff) ; 
0538:  MOVLW  FF
053A:  MOVWF  F92
....................    set_tris_b (0x0f) ; 
053C:  MOVLW  0F
053E:  MOVWF  F93
....................    set_tris_d (0x00) ; 
0540:  MOVLW  00
0542:  MOVWF  F95
....................    
....................    lcd_init();   
0544:  BRA    046E
....................     
....................    printf(lcd_putc, "AUTOR"); 
0546:  MOVLW  5C
0548:  MOVWF  FF6
054A:  MOVLW  04
054C:  MOVWF  FF7
054E:  CLRF   16
0550:  BTFSC  FF2.7
0552:  BSF    16.7
0554:  BCF    FF2.7
0556:  RCALL  01EA
0558:  BTFSC  16.7
055A:  BSF    FF2.7
055C:  CLRF   16
055E:  BTFSC  FF2.7
0560:  BSF    16.7
0562:  BCF    FF2.7
....................    lcd_gotoxy(1,2); 
0564:  MOVLW  01
0566:  MOVWF  32
0568:  MOVLW  02
056A:  MOVWF  33
056C:  RCALL  015E
056E:  BTFSC  16.7
0570:  BSF    FF2.7
....................    printf(lcd_putc, "JAIME DIAZ"); 
0572:  MOVLW  62
0574:  MOVWF  FF6
0576:  MOVLW  04
0578:  MOVWF  FF7
057A:  CLRF   16
057C:  BTFSC  FF2.7
057E:  BSF    16.7
0580:  BCF    FF2.7
0582:  RCALL  01EA
0584:  BTFSC  16.7
0586:  BSF    FF2.7
....................    delay_ms(1000); 
0588:  MOVLW  04
058A:  MOVWF  23
058C:  CLRF   16
058E:  BTFSC  FF2.7
0590:  BSF    16.7
0592:  BCF    FF2.7
0594:  MOVLW  FA
0596:  MOVWF  32
0598:  RCALL  0180
059A:  BTFSC  16.7
059C:  BSF    FF2.7
059E:  DECFSZ 23,F
05A0:  BRA    058C
05A2:  CLRF   16
05A4:  BTFSC  FF2.7
05A6:  BSF    16.7
05A8:  BCF    FF2.7
....................    lcd_putc('\f'); 
05AA:  MOVLW  0C
05AC:  MOVWF  31
05AE:  RCALL  01A6
05B0:  BTFSC  16.7
05B2:  BSF    FF2.7
....................    
....................     
....................   // set_timer0 (time) ; 
....................    enable_interrupts (INT_TIMER0); // avilita la interruccion por derrame 
05B4:  BSF    FF2.5
....................    enable_interrupts (INT_ext); 
05B6:  BSF    FF2.4
....................    enable_interrupts (global); 
05B8:  MOVLW  C0
05BA:  IORWF  FF2,F
....................     
....................    setup_timer_0 (rtcc_div_2|rtcc_internal|rtcc_8_bit) ; 
05BC:  MOVWF  FD5
....................     
....................    setup_adc (ADC_CLOCK_div_8); 
05BE:  BSF    FC0.0
05C0:  BCF    FC0.1
05C2:  BCF    FC0.2
05C4:  BCF    FC0.7
05C6:  BSF    FC2.0
....................    setup_adc_ports (AN0); 
05C8:  MOVF   FC1,W
05CA:  ANDLW  C0
05CC:  IORLW  0E
05CE:  MOVWF  FC1
....................    set_adc_channel (0); 
05D0:  MOVLW  00
05D2:  MOVWF  01
05D4:  MOVF   FC2,W
05D6:  ANDLW  C3
05D8:  IORWF  01,W
05DA:  MOVWF  FC2
....................    delay_us (10) ; 
05DC:  MOVLW  10
05DE:  MOVWF  00
05E0:  DECFSZ 00,F
05E2:  BRA    05E0
05E4:  NOP   
....................  
....................    WHILE (true) 
....................    { 
....................        
....................       valor = read_adc (); 
05E6:  BSF    FC2.1
05E8:  BTFSC  FC2.1
05EA:  BRA    05E8
05EC:  MOVFF  FC4,17
....................       pwmh = valor; 
05F0:  MOVFF  17,18
....................       output_high (pin_b6); 
05F4:  BCF    F93.6
05F6:  BSF    F8A.6
....................       z=0; 
05F8:  CLRF   1B
....................      
....................   if(y==3){ 
05FA:  MOVF   1A,W
05FC:  SUBLW  03
05FE:  BTFSS  FD8.2
0600:  BRA    06F2
....................    IF ( (pwmh <= 25)&& (pwmh >= 0)){           //10% 
0602:  MOVF   18,W
0604:  SUBLW  19
0606:  BNC   0616
....................       subida = 255; 
0608:  CLRF   20
060A:  MOVLW  FF
060C:  MOVWF  1F
....................       bajada = 76; 
060E:  CLRF   22
0610:  MOVLW  4C
0612:  MOVWF  21
....................        
....................       } 
....................        
....................       else IF ( (pwmh <= 50)&& (pwmh >= 26)){ //20% 
0614:  BRA    06F2
0616:  MOVF   18,W
0618:  SUBLW  32
061A:  BNC   0630
061C:  MOVF   18,W
061E:  SUBLW  19
0620:  BC    0630
....................       subida = 220; 
0622:  CLRF   20
0624:  MOVLW  DC
0626:  MOVWF  1F
....................       bajada = 94; 
0628:  CLRF   22
062A:  MOVLW  5E
062C:  MOVWF  21
....................        
....................        
....................       } 
....................       else IF ( (pwmh <= 75)&& (pwmh >= 51)){  //30 % 
062E:  BRA    06F2
0630:  MOVF   18,W
0632:  SUBLW  4B
0634:  BNC   064A
0636:  MOVF   18,W
0638:  SUBLW  32
063A:  BC    064A
....................       subida = 200; 
063C:  CLRF   20
063E:  MOVLW  C8
0640:  MOVWF  1F
....................       bajada = 115; 
0642:  CLRF   22
0644:  MOVLW  73
0646:  MOVWF  21
....................        
....................        
....................       }else IF ( (pwmh <= 100)&& (pwmh >= 76)){ //40% 
0648:  BRA    06F2
064A:  MOVF   18,W
064C:  SUBLW  64
064E:  BNC   0664
0650:  MOVF   18,W
0652:  SUBLW  4B
0654:  BC    0664
....................       subida = 180; 
0656:  CLRF   20
0658:  MOVLW  B4
065A:  MOVWF  1F
....................       bajada = 134; 
065C:  CLRF   22
065E:  MOVLW  86
0660:  MOVWF  21
....................       
....................       }else IF ( (pwmh <= 125)&& (pwmh >= 101)){ //50% 
0662:  BRA    06F2
0664:  MOVF   18,W
0666:  SUBLW  7D
0668:  BNC   067E
066A:  MOVF   18,W
066C:  SUBLW  64
066E:  BC    067E
....................       subida = 160; 
0670:  CLRF   20
0672:  MOVLW  A0
0674:  MOVWF  1F
....................       bajada = 154; 
0676:  CLRF   22
0678:  MOVLW  9A
067A:  MOVWF  21
....................        
....................        
....................       }else IF ( (pwmh <= 150)&& (pwmh >= 126)){  //60 % 
067C:  BRA    06F2
067E:  MOVF   18,W
0680:  SUBLW  96
0682:  BNC   0698
0684:  MOVF   18,W
0686:  SUBLW  7D
0688:  BC    0698
....................       subida = 134; 
068A:  CLRF   20
068C:  MOVLW  86
068E:  MOVWF  1F
....................       bajada = 180; 
0690:  CLRF   22
0692:  MOVLW  B4
0694:  MOVWF  21
....................       
....................       }else IF ( (pwmh <= 175)&& (pwmh >= 151)){ //70% 
0696:  BRA    06F2
0698:  MOVF   18,W
069A:  SUBLW  AF
069C:  BNC   06B2
069E:  MOVF   18,W
06A0:  SUBLW  96
06A2:  BC    06B2
....................       subida = 115; 
06A4:  CLRF   20
06A6:  MOVLW  73
06A8:  MOVWF  1F
....................       bajada = 200; 
06AA:  CLRF   22
06AC:  MOVLW  C8
06AE:  MOVWF  21
....................        
....................       }else IF ( (pwmh <= 200)&& (pwmh >= 176)){ //80% 
06B0:  BRA    06F2
06B2:  MOVF   18,W
06B4:  SUBLW  C8
06B6:  BNC   06CC
06B8:  MOVF   18,W
06BA:  SUBLW  AF
06BC:  BC    06CC
....................        
....................       subida = 94; 
06BE:  CLRF   20
06C0:  MOVLW  5E
06C2:  MOVWF  1F
....................       bajada = 220; 
06C4:  CLRF   22
06C6:  MOVLW  DC
06C8:  MOVWF  21
....................        
....................       }else IF ( (pwmh <= 255)&& (pwmh >= 201)){ //90% 
06CA:  BRA    06F2
06CC:  MOVF   18,W
06CE:  SUBLW  C8
06D0:  BC    06E0
....................        
....................       subida = 76; 
06D2:  CLRF   20
06D4:  MOVLW  4C
06D6:  MOVWF  1F
....................       bajada = 255; 
06D8:  CLRF   22
06DA:  MOVLW  FF
06DC:  MOVWF  21
....................       
....................    }else IF ( (pwmh <= 255)&& (pwmh >= 226)) 
06DE:  BRA    06F2
06E0:  MOVF   18,W
06E2:  SUBLW  E1
06E4:  BC    06F2
....................    { 
....................       //100% 
....................       subida =76 ; 
06E6:  CLRF   20
06E8:  MOVLW  4C
06EA:  MOVWF  1F
....................       bajada =255 ; 
06EC:  CLRF   22
06EE:  MOVLW  FF
06F0:  MOVWF  21
....................    } 
....................  
....................    /* 
....................        lcd_gotoxy (1, 1) ; 
....................       printf (lcd_putc, "DUTY =");   
....................        
....................       IF ( (pwmh <= 25)&& (pwmh >= 0)){           //10% 
....................         lcd_gotoxy (1, 2) ; 
....................        printf (lcd_putc, "   10  "); 
....................       }else IF ( (pwmh <= 50)&& (pwmh >= 26)){ //20% 
....................       lcd_gotoxy (1, 2) ; 
....................        printf (lcd_putc, "   20  "); 
....................       }else IF ( (pwmh <= 75)&& (pwmh >= 51)){  //30 % 
....................       lcd_gotoxy (1, 2) ; 
....................        printf (lcd_putc, "   30  "); 
....................       }else IF ( (pwmh <= 100)&& (pwmh >= 76)){ //40% 
....................       lcd_gotoxy (1, 2) ; 
....................        printf (lcd_putc, "   40  "); 
....................       }else IF ( (pwmh <= 125)&& (pwmh >= 101)){ //50% 
....................       lcd_gotoxy (1, 2) ; 
....................        printf (lcd_putc, "   50  "); 
....................       }else IF ( (pwmh <= 150)&& (pwmh >= 126)){  //60 % 
....................      lcd_gotoxy (1, 2) ; 
....................        printf (lcd_putc, "   60  "); 
....................       }else IF ( (pwmh <= 175)&& (pwmh >= 151)){ //70% 
....................       lcd_gotoxy (1, 2) ; 
....................        printf (lcd_putc, "   70  "); 
....................       }else IF ( (pwmh <= 200)&& (pwmh >= 176)){ //80% 
....................       lcd_gotoxy (1, 2) ; 
....................        printf (lcd_putc, "   80  "); 
....................       }else IF ( (pwmh <= 255)&& (pwmh >= 201)){ //90% 
....................        lcd_gotoxy (1, 2) ; 
....................        printf (lcd_putc, "   90  "); 
....................    } 
....................        
....................      
....................       delay_ms (50); 
....................       lcd_putc ('\f'); 
....................     */   
.................... } 
.................... } 
06F2:  BRA    05E6
.................... } 
06F4:  SLEEP 

Configuration Fuses:
   Word  1: CC24   IESO FCMEN HS PLL5 CPUDIV1 USBDIV
   Word  2: 0E38   NOBROWNOUT WDT128 NOWDT BORV20 PUT VREGEN
   Word  3: 8700   PBADEN CCP2C1 MCLR LPT1OSC
   Word  4: 00A1   STVREN NODEBUG NOLVP NOXINST ICPRT
   Word  5: C00F   NOPROTECT NOCPD NOCPB
   Word  6: E00F   NOWRT NOWRTD NOWRTC NOWRTB
   Word  7: 400F   NOEBTR NOEBTRB
