CCS PCH C Compiler, Version 4.114, 93460303               03-sep-15 23:27

               Filename: c:\users\jaime diaz\desktop\laboratorios ud\programas pic\generador de ciclos.lst

               ROM used: 2630 bytes (8%)
                         Largest free fragment is 30134
               RAM used: 31 (2%) at main() level
                         59 (3%) worst case
               Stack:    7 worst case (6 in main + 1 for interrupts)

*
0000:  GOTO   0956
*
0008:  MOVWF  04
000A:  MOVFF  FD8,05
000E:  MOVFF  FE0,06
0012:  MOVLB  0
0014:  MOVFF  FE9,0C
0018:  MOVFF  FEA,07
001C:  MOVFF  FE1,08
0020:  MOVFF  FE2,09
0024:  MOVFF  FD9,0A
0028:  MOVFF  FDA,0B
002C:  MOVFF  FF3,12
0030:  MOVFF  FF4,13
0034:  MOVFF  FFA,14
0038:  MOVFF  FF5,15
003C:  MOVFF  FF6,16
0040:  MOVFF  FF7,17
0044:  MOVFF  00,0E
0048:  MOVFF  01,0F
004C:  MOVFF  02,10
0050:  MOVFF  03,11
0054:  BTFSS  F9D.1
0056:  GOTO   0060
005A:  BTFSC  F9E.1
005C:  GOTO   00C2
0060:  MOVFF  0E,00
0064:  MOVFF  0F,01
0068:  MOVFF  10,02
006C:  MOVFF  11,03
0070:  MOVFF  0C,FE9
0074:  MOVFF  07,FEA
0078:  BSF    07.7
007A:  MOVFF  08,FE1
007E:  MOVFF  09,FE2
0082:  MOVFF  0A,FD9
0086:  MOVFF  0B,FDA
008A:  MOVFF  12,FF3
008E:  MOVFF  13,FF4
0092:  MOVFF  14,FFA
0096:  MOVFF  15,FF5
009A:  MOVFF  16,FF6
009E:  MOVFF  17,FF7
00A2:  MOVF   04,W
00A4:  MOVFF  06,FE0
00A8:  MOVFF  05,FD8
00AC:  RETFIE 0
.................... #include <generador de ciclos.h> 
.................... #include <18F4550.h> 
.................... //////// Standard Header file for the PIC18F4550 device //////////////// 
.................... #device PIC18F4550 
.................... #list 
....................  
....................  
.................... #FUSES NOWDT                 	//No Watch Dog Timer 
.................... #FUSES WDT128                	//Watch Dog Timer uses 1:128 Postscale 
.................... #FUSES PLL12                 	//Divide By 12(48MHz oscillator input) 
.................... #FUSES CPUDIV4               	//System Clock by 4 
.................... #FUSES USBDIV                	//USB clock source comes from PLL divide by 2 
.................... #FUSES XT                    	//Crystal osc <= 4mhz for PCM/PCH , 3mhz to 10 mhz for PCD 
.................... #FUSES FCMEN                 	//Fail-safe clock monitor enabled 
.................... #FUSES IESO                  	//Internal External Switch Over mode enabled 
.................... #FUSES NOPUT                 	//No Power Up Timer 
.................... #FUSES NOBROWNOUT            	//No brownout reset 
.................... #FUSES BORV20                	//Brownout reset at 2.0V 
.................... #FUSES VREGEN                	//USB voltage regulator enabled 
.................... #FUSES PBADEN                	//PORTB pins are configured as analog input channels on RESET 
.................... #FUSES LPT1OSC               	//Timer1 configured for low-power operation 
.................... #FUSES MCLR                  	//Master Clear pin enabled 
.................... #FUSES STVREN                	//Stack full/underflow will cause reset 
.................... #FUSES NOLVP                 	//No low voltage prgming, B3(PIC16) or B5(PIC18) used for I/O 
.................... #FUSES ICPRT                 	//ICPRT enabled 
.................... #FUSES NOXINST               	//Extended set extension and Indexed Addressing mode disabled (Legacy mode) 
.................... #FUSES NODEBUG               	//No Debug mode for ICD 
.................... #FUSES NOPROTECT             	//Code not protected from reading 
.................... #FUSES NOCPB                 	//No Boot Block code protection 
.................... #FUSES NOCPD                 	//No EE protection 
.................... #FUSES NOWRT                 	//Program memory not write protected 
.................... #FUSES NOWRTC                	//configuration not registers write protected 
.................... #FUSES NOWRTB                	//Boot block not write protected 
.................... #FUSES NOWRTD                	//Data EEPROM not write protected 
.................... #FUSES NOEBTR                	//Memory not protected from table reads 
.................... #FUSES NOEBTRB               	//Boot block not protected from table reads 
....................  
.................... #use delay(crystal=20000000,  clock=5000000) 
....................  
....................  
.................... #fuses hs,nowdt,nolvp 
.................... #use delay(clock=20000000)  
*
00E4:  CLRF   FEA
00E6:  MOVLW  2C
00E8:  MOVWF  FE9
00EA:  MOVF   FEF,W
00EC:  BZ    0108
00EE:  MOVLW  06
00F0:  MOVWF  01
00F2:  CLRF   00
00F4:  DECFSZ 00,F
00F6:  BRA    00F4
00F8:  DECFSZ 01,F
00FA:  BRA    00F2
00FC:  MOVLW  7B
00FE:  MOVWF  00
0100:  DECFSZ 00,F
0102:  BRA    0100
0104:  DECFSZ FEF,F
0106:  BRA    00EE
0108:  RETLW  00
.................... #include <lcd.c> 
.................... /////////////////////////////////////////////////////////////////////////////// 
.................... ////                             LCD.C                                     //// 
.................... ////                 Driver for common LCD modules                         //// 
.................... ////                                                                       //// 
.................... ////  lcd_init()   Must be called before any other function.               //// 
.................... ////                                                                       //// 
.................... ////  lcd_putc(c)  Will display c on the next position of the LCD.         //// 
.................... ////                 \a  Set cursor position to upper left                 //// 
.................... ////                 \f  Clear display, set cursor to upper left           //// 
.................... ////                 \n  Go to start of second line                        //// 
.................... ////                 \b  Move back one position                            //// 
.................... ////              If LCD_EXTENDED_NEWLINE is defined, the \n character     //// 
.................... ////              will erase all remanining characters on the current      //// 
.................... ////              line, and move the cursor to the beginning of the next   //// 
.................... ////              line.                                                    //// 
.................... ////              If LCD_EXTENDED_NEWLINE is defined, the \r character     //// 
.................... ////              will move the cursor to the start of the current         //// 
.................... ////              line.                                                    //// 
.................... ////                                                                       //// 
.................... ////  lcd_gotoxy(x,y) Set write position on LCD (upper left is 1,1)        //// 
.................... ////                                                                       //// 
.................... ////  lcd_getc(x,y)   Returns character at position x,y on LCD             //// 
.................... ////                                                                       //// 
.................... ////  CONFIGURATION                                                        //// 
.................... ////  The LCD can be configured in one of two ways: a.) port access or     //// 
.................... ////  b.) pin access.  Port access requires the entire 7 bit interface     //// 
.................... ////  connected to one GPIO port, and the data bits (D4:D7 of the LCD)     //// 
.................... ////  connected to sequential pins on the GPIO.  Pin access                //// 
.................... ////  has no requirements, all 7 bits of the control interface can         //// 
.................... ////  can be connected to any GPIO using several ports.                    //// 
.................... ////                                                                       //// 
.................... ////  To use port access, #define LCD_DATA_PORT to the SFR location of     //// 
.................... ////  of the GPIO port that holds the interface, -AND- edit LCD_PIN_MAP    //// 
.................... ////  of this file to configure the pin order.  If you are using a         //// 
.................... ////  baseline PIC (PCB), then LCD_OUTPUT_MAP and LCD_INPUT_MAP also must  //// 
.................... ////  be defined.                                                          //// 
.................... ////                                                                       //// 
.................... ////  Example of port access:                                              //// 
.................... ////     #define LCD_DATA_PORT getenv("SFR:PORTD")                         //// 
.................... ////                                                                       //// 
.................... ////  To use pin access, the following pins must be defined:               //// 
.................... ////     LCD_ENABLE_PIN                                                    //// 
.................... ////     LCD_RS_PIN                                                        //// 
.................... ////     LCD_RW_PIN                                                        //// 
.................... ////     LCD_DATA4                                                         //// 
.................... ////     LCD_DATA5                                                         //// 
.................... ////     LCD_DATA6                                                         //// 
.................... ////     LCD_DATA7                                                         //// 
.................... ////                                                                       //// 
.................... ////  Example of pin access:                                               //// 
.................... ////     #define LCD_ENABLE_PIN  PIN_E0                                    //// 
.................... ////     #define LCD_RS_PIN      PIN_E1                                    //// 
.................... ////     #define LCD_RW_PIN      PIN_E2                                    //// 
.................... ////     #define LCD_DATA4       PIN_D4                                    //// 
.................... ////     #define LCD_DATA5       PIN_D5                                    //// 
.................... ////     #define LCD_DATA6       PIN_D6                                    //// 
.................... ////     #define LCD_DATA7       PIN_D7                                    //// 
.................... ////                                                                       //// 
.................... /////////////////////////////////////////////////////////////////////////////// 
.................... ////        (C) Copyright 1996,2010 Custom Computer Services           //// 
.................... //// This source code may only be used by licensed users of the CCS C  //// 
.................... //// compiler.  This source code may only be distributed to other      //// 
.................... //// licensed users of the CCS C compiler.  No other use, reproduction //// 
.................... //// or distribution is permitted without written permission.          //// 
.................... //// Derivative programs created using this software in object code    //// 
.................... //// form are not restricted in any way.                               //// 
.................... /////////////////////////////////////////////////////////////////////////// 
....................  
.................... // define the pinout. 
.................... // only required if port access is being used. 
.................... typedef struct   
.................... {                            // This structure is overlayed 
....................    BOOLEAN enable;           // on to an I/O port to gain 
....................    BOOLEAN rs;               // access to the LCD pins. 
....................    BOOLEAN rw;               // The bits are allocated from 
....................    BOOLEAN unused;           // low order up.  ENABLE will 
....................    int     data : 4;         // be LSB pin of that port. 
....................   #if defined(__PCD__)       // The port used will be LCD_DATA_PORT. 
....................    int    reserved: 8; 
....................   #endif 
.................... } LCD_PIN_MAP; 
....................  
.................... // this is to improve compatability with previous LCD drivers that accepted 
.................... // a define labeled 'use_portb_lcd' that configured the LCD onto port B. 
.................... #if ((defined(use_portb_lcd)) && (use_portb_lcd==TRUE)) 
....................  #define LCD_DATA_PORT getenv("SFR:PORTB") 
.................... #endif 
....................  
.................... #if defined(__PCB__) 
....................    // these definitions only need to be modified for baseline PICs. 
....................    // all other PICs use LCD_PIN_MAP or individual LCD_xxx pin definitions. 
.................... /*                                    EN, RS,   RW,   UNUSED,  DATA  */ 
....................  const LCD_PIN_MAP LCD_OUTPUT_MAP =  {0,  0,    0,    0,       0}; 
....................  const LCD_PIN_MAP LCD_INPUT_MAP =   {0,  0,    0,    0,       0xF}; 
.................... #endif 
....................  
.................... ////////////////////// END CONFIGURATION /////////////////////////////////// 
....................  
.................... #ifndef LCD_ENABLE_PIN 
....................    #define lcd_output_enable(x) lcdlat.enable=x 
....................    #define lcd_enable_tris()   lcdtris.enable=0 
.................... #else 
....................    #define lcd_output_enable(x) output_bit(LCD_ENABLE_PIN, x) 
....................    #define lcd_enable_tris()  output_drive(LCD_ENABLE_PIN) 
.................... #endif 
....................  
.................... #ifndef LCD_RS_PIN 
....................    #define lcd_output_rs(x) lcdlat.rs=x 
....................    #define lcd_rs_tris()   lcdtris.rs=0 
.................... #else 
....................    #define lcd_output_rs(x) output_bit(LCD_RS_PIN, x) 
....................    #define lcd_rs_tris()  output_drive(LCD_RS_PIN) 
.................... #endif 
....................  
.................... #ifndef LCD_RW_PIN 
....................    #define lcd_output_rw(x) lcdlat.rw=x 
....................    #define lcd_rw_tris()   lcdtris.rw=0 
.................... #else 
....................    #define lcd_output_rw(x) output_bit(LCD_RW_PIN, x) 
....................    #define lcd_rw_tris()  output_drive(LCD_RW_PIN) 
.................... #endif 
....................  
.................... // original version of this library incorrectly labeled LCD_DATA0 as LCD_DATA4, 
.................... // LCD_DATA1 as LCD_DATA5, and so on.  this block of code makes the driver 
.................... // compatible with any code written for the original library 
.................... #if (defined(LCD_DATA0) && defined(LCD_DATA1) && defined(LCD_DATA2) && defined(LCD_DATA3) && !defined(LCD_DATA4) && !defined(LCD_DATA5) && !defined(LCD_DATA6) && !defined(LCD_DATA7)) 
....................    #define  LCD_DATA4    LCD_DATA0 
....................    #define  LCD_DATA5    LCD_DATA1 
....................    #define  LCD_DATA6    LCD_DATA2 
....................    #define  LCD_DATA7    LCD_DATA3 
.................... #endif 
....................  
.................... #ifndef LCD_DATA4 
.................... #ifndef LCD_DATA_PORT 
....................    #if defined(__PCB__) 
....................       #define LCD_DATA_PORT      0x06     //portb 
....................       #define set_tris_lcd(x)   set_tris_b(x) 
....................    #else 
....................      #if defined(PIN_D0) 
....................       #define LCD_DATA_PORT      getenv("SFR:PORTD")     //portd 
....................      #else 
....................       #define LCD_DATA_PORT      getenv("SFR:PORTB")     //portb 
....................      #endif 
....................    #endif    
.................... #endif 
....................  
.................... #if defined(__PCB__) 
....................    LCD_PIN_MAP lcd, lcdlat; 
....................    #byte lcd = LCD_DATA_PORT 
....................    #byte lcdlat = LCD_DATA_PORT 
.................... #elif defined(__PCM__) 
....................    LCD_PIN_MAP lcd, lcdlat, lcdtris; 
....................    #byte lcd = LCD_DATA_PORT 
....................    #byte lcdlat = LCD_DATA_PORT 
....................    #byte lcdtris = LCD_DATA_PORT+0x80 
.................... #elif defined(__PCH__) 
....................    LCD_PIN_MAP lcd, lcdlat, lcdtris; 
....................    #byte lcd = LCD_DATA_PORT 
....................    #byte lcdlat = LCD_DATA_PORT+9 
....................    #byte lcdtris = LCD_DATA_PORT+0x12 
.................... #elif defined(__PCD__) 
....................    LCD_PIN_MAP lcd, lcdlat, lcdtris; 
....................    #word lcd = LCD_DATA_PORT 
....................    #word lcdlat = LCD_DATA_PORT+2 
....................    #word lcdtris = LCD_DATA_PORT-0x02 
.................... #endif 
.................... #endif   //LCD_DATA4 not defined 
....................  
.................... #ifndef LCD_TYPE 
....................    #define LCD_TYPE 2           // 0=5x7, 1=5x10, 2=2 lines 
.................... #endif 
....................  
.................... #ifndef LCD_LINE_TWO 
....................    #define LCD_LINE_TWO 0x40    // LCD RAM address for the second line 
.................... #endif 
....................  
.................... #ifndef LCD_LINE_LENGTH 
....................    #define LCD_LINE_LENGTH 20 
.................... #endif 
....................  
.................... BYTE const LCD_INIT_STRING[4] = {0x20 | (LCD_TYPE << 2), 0xc, 1, 6}; 
....................                              // These bytes need to be sent to the LCD 
....................                              // to start it up. 
....................  
.................... BYTE lcd_read_nibble(void); 
....................  
.................... BYTE lcd_read_byte(void) 
.................... { 
....................    BYTE low,high; 
....................  
....................  #if defined(__PCB__) 
....................    set_tris_lcd(LCD_INPUT_MAP); 
....................  #else 
....................   #if (defined(LCD_DATA4) && defined(LCD_DATA5) && defined(LCD_DATA6) && defined(LCD_DATA7)) 
....................    output_float(LCD_DATA4); 
....................    output_float(LCD_DATA5); 
....................    output_float(LCD_DATA6); 
....................    output_float(LCD_DATA7); 
....................   #else 
....................    lcdtris.data = 0xF; 
*
0134:  MOVLW  0F
0136:  ANDWF  F95,W
0138:  IORLW  F0
013A:  MOVWF  F95
....................   #endif 
....................  #endif 
....................          
....................    lcd_output_rw(1); 
013C:  BSF    F8C.2
....................    delay_cycles(1); 
013E:  NOP   
....................    lcd_output_enable(1); 
0140:  BSF    F8C.0
....................    delay_cycles(1); 
0142:  NOP   
....................    high = lcd_read_nibble(); 
0144:  RCALL  0128
0146:  MOVFF  01,33
....................        
....................    lcd_output_enable(0); 
014A:  BCF    F8C.0
....................    delay_cycles(1); 
014C:  NOP   
....................    lcd_output_enable(1); 
014E:  BSF    F8C.0
....................    delay_us(1); 
0150:  BRA    0152
0152:  BRA    0154
0154:  NOP   
....................    low = lcd_read_nibble(); 
0156:  RCALL  0128
0158:  MOVFF  01,32
....................        
....................    lcd_output_enable(0); 
015C:  BCF    F8C.0
....................  
....................  #if defined(__PCB__) 
....................    set_tris_lcd(LCD_OUTPUT_MAP); 
....................  #else 
....................   #if (defined(LCD_DATA4) && defined(LCD_DATA5) && defined(LCD_DATA6) && defined(LCD_DATA7)) 
....................    output_drive(LCD_DATA4); 
....................    output_drive(LCD_DATA5); 
....................    output_drive(LCD_DATA6); 
....................    output_drive(LCD_DATA7); 
....................   #else 
....................    lcdtris.data = 0x0; 
015E:  MOVLW  0F
0160:  ANDWF  F95,W
0162:  MOVWF  F95
....................   #endif 
....................  #endif 
....................  
....................    return( (high<<4) | low); 
0164:  SWAPF  33,W
0166:  MOVWF  00
0168:  MOVLW  F0
016A:  ANDWF  00,F
016C:  MOVF   00,W
016E:  IORWF  32,W
0170:  MOVWF  01
.................... } 
0172:  GOTO   0180 (RETURN)
....................  
.................... BYTE lcd_read_nibble(void) 
.................... { 
....................   #if (defined(LCD_DATA4) && defined(LCD_DATA5) && defined(LCD_DATA6) && defined(LCD_DATA7)) 
....................    BYTE n = 0x00; 
....................  
....................    /* Read the data port */ 
....................    n |= input(LCD_DATA4); 
....................    n |= input(LCD_DATA5) << 1; 
....................    n |= input(LCD_DATA6) << 2; 
....................    n |= input(LCD_DATA7) << 3; 
....................     
....................    return(n); 
....................   #else 
....................    return(lcd.data); 
*
0128:  MOVF   F83,W
012A:  MOVWF  00
012C:  SWAPF  00,W
012E:  ANDLW  0F
0130:  MOVWF  01
....................   #endif 
.................... } 
0132:  RETLW  00
....................  
.................... void lcd_send_nibble(BYTE n) 
.................... { 
....................   #if (defined(LCD_DATA4) && defined(LCD_DATA5) && defined(LCD_DATA6) && defined(LCD_DATA7)) 
....................    /* Write to the data port */ 
....................    output_bit(LCD_DATA4, bit_test(n, 0)); 
....................    output_bit(LCD_DATA5, bit_test(n, 1)); 
....................    output_bit(LCD_DATA6, bit_test(n, 2)); 
....................    output_bit(LCD_DATA7, bit_test(n, 3)); 
....................   #else       
....................    lcdlat.data = n; 
*
010A:  SWAPF  33,W
010C:  ANDLW  F0
010E:  MOVWF  00
0110:  MOVLW  0F
0112:  ANDWF  F8C,W
0114:  IORWF  00,W
0116:  MOVWF  F8C
....................   #endif 
....................        
....................    delay_cycles(1); 
0118:  NOP   
....................    lcd_output_enable(1); 
011A:  BSF    F8C.0
....................    delay_us(2); 
011C:  MOVLW  03
011E:  MOVWF  00
0120:  DECFSZ 00,F
0122:  BRA    0120
....................    lcd_output_enable(0); 
0124:  BCF    F8C.0
.................... } 
0126:  RETLW  00
....................  
.................... void lcd_send_byte(BYTE address, BYTE n) 
.................... { 
....................   #if defined(__PCB__) 
....................    set_tris_lcd(LCD_OUTPUT_MAP); 
....................   #else 
....................    lcd_enable_tris(); 
*
0176:  BCF    F95.0
....................    lcd_rs_tris(); 
0178:  BCF    F95.1
....................    lcd_rw_tris(); 
017A:  BCF    F95.2
....................   #endif 
....................  
....................    lcd_output_rs(0); 
017C:  BCF    F8C.1
....................    while ( bit_test(lcd_read_byte(),7) ) ; 
017E:  BRA    0134
0180:  MOVFF  01,32
0184:  BTFSC  01.7
0186:  BRA    017E
....................    lcd_output_rs(address); 
0188:  BCF    F8C.1
018A:  BTFSC  30.0
018C:  BSF    F8C.1
....................    delay_cycles(1); 
018E:  NOP   
....................    lcd_output_rw(0); 
0190:  BCF    F8C.2
....................    delay_cycles(1); 
0192:  NOP   
....................    lcd_output_enable(0); 
0194:  BCF    F8C.0
....................    lcd_send_nibble(n >> 4); 
0196:  SWAPF  31,W
0198:  MOVWF  32
019A:  MOVLW  0F
019C:  ANDWF  32,F
019E:  MOVFF  32,33
01A2:  RCALL  010A
....................    lcd_send_nibble(n & 0xf); 
01A4:  MOVF   31,W
01A6:  ANDLW  0F
01A8:  MOVWF  32
01AA:  MOVWF  33
01AC:  RCALL  010A
.................... } 
01AE:  RETLW  00
....................  
.................... #if defined(LCD_EXTENDED_NEWLINE) 
.................... unsigned int8 g_LcdX, g_LcdY; 
.................... #endif 
....................  
.................... void lcd_init(void)  
.................... { 
....................    BYTE i; 
....................  
....................  #if defined(__PCB__) 
....................    set_tris_lcd(LCD_OUTPUT_MAP); 
....................  #else 
....................   #if (defined(LCD_DATA4) && defined(LCD_DATA5) && defined(LCD_DATA6) && defined(LCD_DATA7)) 
....................    output_drive(LCD_DATA4); 
....................    output_drive(LCD_DATA5); 
....................    output_drive(LCD_DATA6); 
....................    output_drive(LCD_DATA7); 
....................   #else 
....................    lcdtris.data = 0x0; 
01B0:  MOVLW  0F
01B2:  ANDWF  F95,W
01B4:  MOVWF  F95
....................   #endif 
....................    lcd_enable_tris(); 
01B6:  BCF    F95.0
....................    lcd_rs_tris(); 
01B8:  BCF    F95.1
....................    lcd_rw_tris(); 
01BA:  BCF    F95.2
....................  #endif 
....................  
....................    lcd_output_rs(0); 
01BC:  BCF    F8C.1
....................    lcd_output_rw(0); 
01BE:  BCF    F8C.2
....................    lcd_output_enable(0); 
01C0:  BCF    F8C.0
....................      
....................    delay_ms(15); 
01C2:  MOVLW  0F
01C4:  MOVWF  2C
01C6:  RCALL  00E4
....................    for(i=1;i<=3;++i) 
01C8:  MOVLW  01
01CA:  MOVWF  1E
01CC:  MOVF   1E,W
01CE:  SUBLW  03
01D0:  BNC   01E6
....................    { 
....................        lcd_send_nibble(3); 
01D2:  MOVLW  03
01D4:  MOVWF  33
01D6:  RCALL  010A
....................        lcd_send_nibble(0); 
01D8:  CLRF   33
01DA:  RCALL  010A
....................        delay_ms(5); 
01DC:  MOVLW  05
01DE:  MOVWF  2C
01E0:  RCALL  00E4
....................    } 
01E2:  INCF   1E,F
01E4:  BRA    01CC
....................     
....................    lcd_send_nibble(2); 
01E6:  MOVLW  02
01E8:  MOVWF  33
01EA:  RCALL  010A
....................    lcd_send_nibble(0); 
01EC:  CLRF   33
01EE:  RCALL  010A
....................    delay_ms(5); 
01F0:  MOVLW  05
01F2:  MOVWF  2C
01F4:  RCALL  00E4
....................    for(i=0;i<=3;++i) 
01F6:  CLRF   1E
01F8:  MOVF   1E,W
01FA:  SUBLW  03
01FC:  BNC   0210
....................       lcd_send_byte(0,LCD_INIT_STRING[i]); 
01FE:  CLRF   03
0200:  MOVF   1E,W
0202:  RCALL  00AE
0204:  MOVWF  1F
0206:  CLRF   30
0208:  MOVWF  31
020A:  RCALL  0176
....................  
....................   #if defined(LCD_EXTENDED_NEWLINE) 
020C:  INCF   1E,F
020E:  BRA    01F8
....................    g_LcdX = 0; 
....................    g_LcdY = 0; 
....................   #endif 
.................... } 
0210:  GOTO   0986 (RETURN)
....................  
.................... void lcd_gotoxy(BYTE x, BYTE y) 
.................... { 
....................    BYTE address; 
....................     
....................    if(y!=1) 
0214:  DECFSZ 2D,W
0216:  BRA    021A
0218:  BRA    0220
....................       address=LCD_LINE_TWO; 
021A:  MOVLW  40
021C:  MOVWF  2E
....................    else 
021E:  BRA    0222
....................       address=0; 
0220:  CLRF   2E
....................       
....................    address+=x-1; 
0222:  MOVLW  01
0224:  SUBWF  2C,W
0226:  ADDWF  2E,F
....................    lcd_send_byte(0,0x80|address); 
0228:  MOVF   2E,W
022A:  IORLW  80
022C:  MOVWF  2F
022E:  CLRF   30
0230:  MOVWF  31
0232:  RCALL  0176
....................  
....................   #if defined(LCD_EXTENDED_NEWLINE) 
....................    g_LcdX = x - 1; 
....................    g_LcdY = y - 1; 
....................   #endif 
.................... } 
0234:  RETLW  00
....................  
.................... void lcd_putc(char c) 
.................... { 
....................    switch (c) 
....................    { 
0236:  MOVF   2B,W
0238:  XORLW  07
023A:  BZ    024A
023C:  XORLW  0B
023E:  BZ    0254
0240:  XORLW  06
0242:  BZ    0264
0244:  XORLW  02
0246:  BZ    0270
0248:  BRA    027A
....................       case '\a'   :  lcd_gotoxy(1,1);     break; 
024A:  MOVLW  01
024C:  MOVWF  2C
024E:  MOVWF  2D
0250:  RCALL  0214
0252:  BRA    0286
....................  
....................       case '\f'   :  lcd_send_byte(0,1); 
0254:  CLRF   30
0256:  MOVLW  01
0258:  MOVWF  31
025A:  RCALL  0176
....................                      delay_ms(2); 
025C:  MOVLW  02
025E:  MOVWF  2C
0260:  RCALL  00E4
....................                     #if defined(LCD_EXTENDED_NEWLINE) 
....................                      g_LcdX = 0; 
....................                      g_LcdY = 0; 
....................                     #endif 
....................                      break; 
0262:  BRA    0286
....................  
....................      #if defined(LCD_EXTENDED_NEWLINE) 
....................       case '\r'   :  lcd_gotoxy(1, g_LcdY+1);   break; 
....................       case '\n'   : 
....................          while (g_LcdX++ < LCD_LINE_LENGTH) 
....................          { 
....................             lcd_send_byte(1, ' '); 
....................          } 
....................          lcd_gotoxy(1, g_LcdY+2); 
....................          break; 
....................      #else 
....................       case '\n'   : lcd_gotoxy(1,2);        break; 
0264:  MOVLW  01
0266:  MOVWF  2C
0268:  MOVLW  02
026A:  MOVWF  2D
026C:  RCALL  0214
026E:  BRA    0286
....................      #endif 
....................       
....................       case '\b'   : lcd_send_byte(0,0x10);  break; 
0270:  CLRF   30
0272:  MOVLW  10
0274:  MOVWF  31
0276:  RCALL  0176
0278:  BRA    0286
....................       
....................      #if defined(LCD_EXTENDED_NEWLINE) 
....................       default     :  
....................          if (g_LcdX < LCD_LINE_LENGTH) 
....................          { 
....................             lcd_send_byte(1, c); 
....................             g_LcdX++; 
....................          } 
....................          break; 
....................      #else 
....................       default     : lcd_send_byte(1,c);     break; 
027A:  MOVLW  01
027C:  MOVWF  30
027E:  MOVFF  2B,31
0282:  RCALL  0176
0284:  BRA    0286
....................      #endif 
....................    } 
.................... } 
0286:  RETLW  00
....................   
.................... char lcd_getc(BYTE x, BYTE y) 
.................... { 
....................    char value; 
....................  
....................    lcd_gotoxy(x,y); 
....................    while ( bit_test(lcd_read_byte(),7) ); // wait until busy flag is low 
....................    lcd_output_rs(1); 
....................    value = lcd_read_byte(); 
....................    lcd_output_rs(0); 
....................     
....................    return(value); 
.................... } 
....................  
.................... //#device ADC=10 
.................... int valor; 
.................... float  voltaje; 
....................  
.................... #INT_TIMER2             //interruccion del timer1 
....................  
.................... void TIMER_ISR(VOID) 
.................... { 
....................    output_toggle(pin_b0);            // salida de señal pueto 
*
00C2:  BCF    F93.0
00C4:  BTG    F8A.0
....................    set_timer2(11);                 // carga timer con 1k 
00C6:  MOVLW  0B
00C8:  MOVWF  FCC
.................... } 
....................  
00CA:  BCF    F9E.1
00CC:  GOTO   0060
.................... void main() 
.................... { 
*
0956:  CLRF   FF8
0958:  BCF    FD0.7
095A:  BSF    07.7
095C:  CLRF   FEA
095E:  CLRF   FE9
0960:  MOVF   FC1,W
0962:  ANDLW  C0
0964:  IORLW  0F
0966:  MOVWF  FC1
0968:  MOVLW  07
096A:  MOVWF  FB4
....................    set_tris_b (0x00); 
096C:  MOVLW  00
096E:  MOVWF  F93
....................    set_tris_a (0xff); 
0970:  MOVLW  FF
0972:  MOVWF  F92
....................    setup_timer_2( T2_div_by_4,1023, 1);            // configuracion timer 
0974:  MOVLW  00
0976:  IORLW  05
0978:  MOVWF  FCA
097A:  MOVLW  FF
097C:  MOVWF  FCB
....................    enable_interrupts(INT_timer2);           // avilita la interruccion por derrame 
097E:  BSF    F9D.1
....................    enable_interrupts(global); 
0980:  MOVLW  C0
0982:  IORWF  FF2,F
....................    lcd_init(); 
0984:  BRA    01B0
....................    setup_adc(ADC_CLOCK_DIV_32); 
0986:  BCF    FC0.0
0988:  BSF    FC0.1
098A:  BCF    FC0.2
098C:  BCF    FC0.7
098E:  BSF    FC2.0
....................    setup_adc_ports(AN0); 
0990:  MOVF   FC1,W
0992:  ANDLW  C0
0994:  IORLW  0E
0996:  MOVWF  FC1
....................    set_adc_channel(0); 
0998:  MOVLW  00
099A:  MOVWF  01
099C:  MOVF   FC2,W
099E:  ANDLW  C3
09A0:  IORWF  01,W
09A2:  MOVWF  FC2
....................    delay_us(10); 
09A4:  MOVLW  10
09A6:  MOVWF  00
09A8:  DECFSZ 00,F
09AA:  BRA    09A8
09AC:  NOP   
....................  
....................    WHILE (true) 
....................    { 
....................       valor = read_adc(); 
09AE:  BSF    FC2.1
09B0:  BTFSC  FC2.1
09B2:  BRA    09B0
09B4:  MOVFF  FC4,19
....................       delay_ms(10); 
09B8:  MOVLW  0A
09BA:  MOVWF  2C
09BC:  CALL   00E4
....................       lcd_putc('\f'); 
09C0:  MOVLW  0C
09C2:  MOVWF  2B
09C4:  RCALL  0236
....................       printf(lcd_putc,"vadc = %u", valor); 
09C6:  MOVLW  D0
09C8:  MOVWF  FF6
09CA:  MOVLW  00
09CC:  MOVWF  FF7
09CE:  MOVLW  07
09D0:  MOVWF  1E
09D2:  RCALL  0288
09D4:  MOVFF  19,1E
09D8:  MOVLW  1B
09DA:  MOVWF  1F
09DC:  BRA    02CE
....................       output_bit(pin_b1, valor); 
09DE:  MOVF   19,F
09E0:  BNZ   09E6
09E2:  BCF    F8A.1
09E4:  BRA    09E8
09E6:  BSF    F8A.1
09E8:  BCF    F93.1
....................       voltaje = (valor=0.0196); 
09EA:  CLRF   19
09EC:  CLRF   1F
09EE:  MOVFF  19,1E
09F2:  BRA    0336
09F4:  MOVFF  03,1D
09F8:  MOVFF  02,1C
09FC:  MOVFF  01,1B
0A00:  MOVFF  00,1A
....................       lcd_gotoxy(1,2); 
0A04:  MOVLW  01
0A06:  MOVWF  2C
0A08:  MOVLW  02
0A0A:  MOVWF  2D
0A0C:  RCALL  0214
....................       printf(lcd_putc,"volt = %g", voltaje); 
0A0E:  MOVLW  DA
0A10:  MOVWF  FF6
0A12:  MOVLW  00
0A14:  MOVWF  FF7
0A16:  MOVLW  07
0A18:  MOVWF  1E
0A1A:  RCALL  0288
0A1C:  MOVLW  89
0A1E:  MOVWF  FE9
0A20:  MOVFF  1D,21
0A24:  MOVFF  1C,20
0A28:  MOVFF  1B,1F
0A2C:  MOVFF  1A,1E
0A30:  MOVLW  02
0A32:  MOVWF  22
0A34:  BRA    079C
....................       delay_ms(1000); 
0A36:  MOVLW  04
0A38:  MOVWF  1E
0A3A:  MOVLW  FA
0A3C:  MOVWF  2C
0A3E:  CALL   00E4
0A42:  DECFSZ 1E,F
0A44:  BRA    0A3A
....................    } 
0A46:  BRA    09AE
.................... } 
....................  
0A48:  SLEEP 

Configuration Fuses:
   Word  1: CC3C   PLL5 CPUDIV4 USBDIV HS FCMEN IESO
   Word  2: 0E39   NOPUT NOBROWNOUT BORV20 VREGEN NOWDT WDT128
   Word  3: 8700   CCP2C1 PBADEN LPT1OSC MCLR
   Word  4: 00A1   STVREN NOLVP ICPRT NOXINST NODEBUG
   Word  5: C00F   NOPROTECT NOCPB NOCPD
   Word  6: E00F   NOWRT NOWRTC NOWRTB NOWRTD
   Word  7: 400F   NOEBTR NOEBTRB
