CCS PCH C Compiler, Version 4.104, 5967               13-nov-15 02:19

               Filename: C:\Users\JAIME DIAZ\Desktop\LABORATORIOS UD\PROGRAMAS PIC\leer y escribir eeprom\eeprom.lst

               ROM used: 8324 bytes (25%)
                         Largest free fragment is 24440
               RAM used: 1539 (75%) at main() level
                         1557 (76%) worst case
               Stack:    7 worst case (6 in main + 1 for interrupts)

*
0000:  GOTO   128A
*
0008:  MOVWF  04
000A:  MOVFF  FD8,05
000E:  MOVFF  FE0,06
0012:  MOVLB  0
0014:  MOVFF  FE9,0C
0018:  MOVFF  FEA,07
001C:  MOVFF  FE1,08
0020:  MOVFF  FE2,09
0024:  MOVFF  FD9,0A
0028:  MOVFF  FDA,0B
002C:  MOVFF  FF3,12
0030:  MOVFF  FF4,13
0034:  MOVFF  FFA,14
0038:  MOVFF  00,0E
003C:  MOVFF  01,0F
0040:  MOVFF  02,10
0044:  MOVFF  03,11
0048:  BTFSS  F9D.5
004A:  GOTO   0054
004E:  BTFSC  F9E.5
0050:  GOTO   0E90
0054:  MOVFF  0E,00
0058:  MOVFF  0F,01
005C:  MOVFF  10,02
0060:  MOVFF  11,03
0064:  MOVFF  0C,FE9
0068:  MOVFF  07,FEA
006C:  BSF    07.7
006E:  MOVFF  08,FE1
0072:  MOVFF  09,FE2
0076:  MOVFF  0A,FD9
007A:  MOVFF  0B,FDA
007E:  MOVFF  12,FF3
0082:  MOVFF  13,FF4
0086:  MOVFF  14,FFA
008A:  MOVF   04,W
008C:  MOVFF  06,FE0
0090:  MOVFF  05,FD8
0094:  RETFIE 0
.................... #include <18f4550.h> 
.................... //////// Standard Header file for the PIC18F4550 device //////////////// 
.................... #device PIC18F4550 
.................... #list 
....................  
.................... #fuses HS,MCLR,NOWDT,NOPROTECT,NOPUT,NOBROWNOUT,NOPBADEN,NOLVP,NOCPD,NODEBUG,NOWRT,NOVREGEN 
.................... #FUSES CPUDIV1         //DIVISION DE FRECUENCIA DEL OSCILADOR: 1 
.................... #use delay(clock=20000000) 
*
0F1E:  MOVLW  06
0F20:  MOVWF  FEA
0F22:  MOVLW  0C
0F24:  MOVWF  FE9
0F26:  MOVF   FEF,W
0F28:  BZ    0F44
0F2A:  MOVLW  06
0F2C:  MOVWF  01
0F2E:  CLRF   00
0F30:  DECFSZ 00,F
0F32:  BRA    0F30
0F34:  DECFSZ 01,F
0F36:  BRA    0F2E
0F38:  MOVLW  7B
0F3A:  MOVWF  00
0F3C:  DECFSZ 00,F
0F3E:  BRA    0F3C
0F40:  DECFSZ FEF,F
0F42:  BRA    0F2A
0F44:  RETLW  00
.................... #include <lcd.c> 
.................... /////////////////////////////////////////////////////////////////////////////// 
.................... ////                             LCD.C                                     //// 
.................... ////                 Driver for common LCD modules                         //// 
.................... ////                                                                       //// 
.................... ////  lcd_init()   Must be called before any other function.               //// 
.................... ////                                                                       //// 
.................... ////  lcd_putc(c)  Will display c on the next position of the LCD.         //// 
.................... ////                     The following have special meaning:               //// 
.................... ////                      \f  Clear display                                //// 
.................... ////                      \n  Go to start of second line                   //// 
.................... ////                      \b  Move back one position                       //// 
.................... ////                                                                       //// 
.................... ////  lcd_gotoxy(x,y) Set write position on LCD (upper left is 1,1)        //// 
.................... ////                                                                       //// 
.................... ////  lcd_getc(x,y)   Returns character at position x,y on LCD             //// 
.................... ////                                                                       //// 
.................... ////  CONFIGURATION                                                        //// 
.................... ////  The LCD can be configured in one of two ways: a.) port access or     //// 
.................... ////  b.) pin access.  Port access requires the entire 7 bit interface     //// 
.................... ////  connected to one GPIO port, and the data bits (D4:D7 of the LCD)     //// 
.................... ////  connected to sequential pins on the GPIO.  Pin access                //// 
.................... ////  has no requirements, all 7 bits of the control interface can         //// 
.................... ////  can be connected to any GPIO using several ports.                    //// 
.................... ////                                                                       //// 
.................... ////  To use port access, #define LCD_DATA_PORT to the SFR location of     //// 
.................... ////  of the GPIO port that holds the interface, -AND- edit LCD_PIN_MAP    //// 
.................... ////  of this file to configure the pin order.  If you are using a         //// 
.................... ////  baseline PIC (PCB), then LCD_OUTPUT_MAP and LCD_INPUT_MAP also must  //// 
.................... ////  be defined.                                                          //// 
.................... ////                                                                       //// 
.................... ////  Example of port access:                                              //// 
.................... ////     #define LCD_DATA_PORT getenv("SFR:PORTD")                         //// 
.................... ////                                                                       //// 
.................... ////  To use pin access, the following pins must be defined:               //// 
.................... ////     LCD_ENABLE_PIN                                                    //// 
.................... ////     LCD_RS_PIN                                                        //// 
.................... ////     LCD_RW_PIN                                                        //// 
.................... ////     LCD_DATA4                                                         //// 
.................... ////     LCD_DATA5                                                         //// 
.................... ////     LCD_DATA6                                                         //// 
.................... ////     LCD_DATA7                                                         //// 
.................... ////                                                                       //// 
.................... ////  Example of pin access:                                               //// 
.................... ////     #define LCD_ENABLE_PIN  PIN_E0                                    //// 
.................... ////     #define LCD_RS_PIN      PIN_E1                                    //// 
.................... ////     #define LCD_RW_PIN      PIN_E2                                    //// 
.................... ////     #define LCD_DATA4       PIN_D4                                    //// 
.................... ////     #define LCD_DATA5       PIN_D5                                    //// 
.................... ////     #define LCD_DATA6       PIN_D6                                    //// 
.................... ////     #define LCD_DATA7       PIN_D7                                    //// 
.................... ////                                                                       //// 
.................... /////////////////////////////////////////////////////////////////////////////// 
.................... ////        (C) Copyright 1996,2009 Custom Computer Services           //// 
.................... //// This source code may only be used by licensed users of the CCS C  //// 
.................... //// compiler.  This source code may only be distributed to other      //// 
.................... //// licensed users of the CCS C compiler.  No other use, reproduction //// 
.................... //// or distribution is permitted without written permission.          //// 
.................... //// Derivative programs created using this software in object code    //// 
.................... //// form are not restricted in any way.                               //// 
.................... /////////////////////////////////////////////////////////////////////////// 
....................  
.................... // define the pinout. 
.................... // only required if port access is being used. 
.................... typedef struct   
.................... {                            // This structure is overlayed 
....................    BOOLEAN enable;           // on to an I/O port to gain 
....................    BOOLEAN rs;               // access to the LCD pins. 
....................    BOOLEAN rw;               // The bits are allocated from 
....................    BOOLEAN unused;           // low order up.  ENABLE will 
....................    int     data : 4;         // be LSB pin of that port. 
....................   #if defined(__PCD__)       // The port used will be LCD_DATA_PORT. 
....................    int    reserved: 8; 
....................   #endif 
.................... } LCD_PIN_MAP; 
....................  
.................... // this is to improve compatability with previous LCD drivers that accepted 
.................... // a define labeled 'use_portb_lcd' that configured the LCD onto port B. 
.................... #if ((defined(use_portb_lcd)) && (use_portb_lcd==TRUE)) 
....................  #define LCD_DATA_PORT getenv("SFR:PORTB") 
.................... #endif 
....................  
.................... #if defined(__PCB__) 
....................    // these definitions only need to be modified for baseline PICs. 
....................    // all other PICs use LCD_PIN_MAP or individual LCD_xxx pin definitions. 
.................... /*                                    EN, RS,   RW,   UNUSED,  DATA  */ 
....................  const LCD_PIN_MAP LCD_OUTPUT_MAP =  {0,  0,    0,    0,       0}; 
....................  const LCD_PIN_MAP LCD_INPUT_MAP =   {0,  0,    0,    0,       0xF}; 
.................... #endif 
....................  
.................... ////////////////////// END CONFIGURATION /////////////////////////////////// 
....................  
.................... #ifndef LCD_ENABLE_PIN 
....................    #define lcd_output_enable(x) lcdlat.enable=x 
....................    #define lcd_enable_tris()   lcdtris.enable=0 
.................... #else 
....................    #define lcd_output_enable(x) output_bit(LCD_ENABLE_PIN, x) 
....................    #define lcd_enable_tris()  output_drive(LCD_ENABLE_PIN) 
.................... #endif 
....................  
.................... #ifndef LCD_RS_PIN 
....................    #define lcd_output_rs(x) lcdlat.rs=x 
....................    #define lcd_rs_tris()   lcdtris.rs=0 
.................... #else 
....................    #define lcd_output_rs(x) output_bit(LCD_RS_PIN, x) 
....................    #define lcd_rs_tris()  output_drive(LCD_RS_PIN) 
.................... #endif 
....................  
.................... #ifndef LCD_RW_PIN 
....................    #define lcd_output_rw(x) lcdlat.rw=x 
....................    #define lcd_rw_tris()   lcdtris.rw=0 
.................... #else 
....................    #define lcd_output_rw(x) output_bit(LCD_RW_PIN, x) 
....................    #define lcd_rw_tris()  output_drive(LCD_RW_PIN) 
.................... #endif 
....................  
.................... // original version of this library incorrectly labeled LCD_DATA0 as LCD_DATA4, 
.................... // LCD_DATA1 as LCD_DATA5, and so on.  this block of code makes the driver 
.................... // compatible with any code written for the original library 
.................... #if (defined(LCD_DATA0) && defined(LCD_DATA1) && defined(LCD_DATA2) && defined(LCD_DATA3) && !defined(LCD_DATA4) && !defined(LCD_DATA5) && !defined(LCD_DATA6) && !defined(LCD_DATA7)) 
....................    #define  LCD_DATA4    LCD_DATA0 
....................    #define  LCD_DATA5    LCD_DATA1 
....................    #define  LCD_DATA6    LCD_DATA2 
....................    #define  LCD_DATA7    LCD_DATA3 
.................... #endif 
....................  
.................... #ifndef LCD_DATA4 
.................... #ifndef LCD_DATA_PORT 
....................    #if defined(__PCB__) 
....................       #define LCD_DATA_PORT      0x06     //portb 
....................       #define set_tris_lcd(x)   set_tris_b(x) 
....................    #else 
....................      #if defined(PIN_D0) 
....................       #define LCD_DATA_PORT      getenv("SFR:PORTD")     //portd 
....................      #else 
....................       #define LCD_DATA_PORT      getenv("SFR:PORTB")     //portb 
....................      #endif 
....................    #endif    
.................... #endif 
....................  
.................... #if defined(__PCB__) 
....................    LCD_PIN_MAP lcd, lcdlat; 
....................    #byte lcd = LCD_DATA_PORT 
....................    #byte lcdlat = LCD_DATA_PORT 
.................... #elif defined(__PCM__) 
....................    LCD_PIN_MAP lcd, lcdlat, lcdtris; 
....................    #byte lcd = LCD_DATA_PORT 
....................    #byte lcdlat = LCD_DATA_PORT 
....................    #byte lcdtris = LCD_DATA_PORT+0x80 
.................... #elif defined(__PCH__) 
....................    LCD_PIN_MAP lcd, lcdlat, lcdtris; 
....................    #byte lcd = LCD_DATA_PORT 
....................    #byte lcdlat = LCD_DATA_PORT+9 
....................    #byte lcdtris = LCD_DATA_PORT+0x12 
.................... #elif defined(__PCD__) 
....................    LCD_PIN_MAP lcd, lcdlat, lcdtris; 
....................    #word lcd = LCD_DATA_PORT 
....................    #word lcdlat = LCD_DATA_PORT+2 
....................    #word lcdtris = LCD_DATA_PORT-0x02 
.................... #endif 
.................... #endif   //LCD_DATA4 not defined 
....................  
.................... #ifndef LCD_TYPE 
....................    #define LCD_TYPE 2           // 0=5x7, 1=5x10, 2=2 lines 
.................... #endif 
....................  
.................... #ifndef LCD_LINE_TWO 
....................    #define LCD_LINE_TWO 0x40    // LCD RAM address for the second line 
.................... #endif 
....................  
.................... BYTE const LCD_INIT_STRING[4] = {0x20 | (LCD_TYPE << 2), 0xc, 1, 6}; 
....................                              // These bytes need to be sent to the LCD 
....................                              // to start it up. 
....................  
.................... BYTE lcd_read_nibble(void); 
....................  
.................... BYTE lcd_read_byte(void) 
.................... { 
....................    BYTE low,high; 
....................  
....................  #if defined(__PCB__) 
....................    set_tris_lcd(LCD_INPUT_MAP); 
....................  #else 
....................   #if (defined(LCD_DATA4) && defined(LCD_DATA5) && defined(LCD_DATA6) && defined(LCD_DATA7)) 
....................    output_float(LCD_DATA4); 
....................    output_float(LCD_DATA5); 
....................    output_float(LCD_DATA6); 
....................    output_float(LCD_DATA7); 
....................   #else 
....................    lcdtris.data = 0xF; 
*
0F74:  MOVLW  0F
0F76:  ANDWF  F95,W
0F78:  IORLW  F0
0F7A:  MOVWF  F95
....................   #endif 
....................  #endif 
....................          
....................    lcd_output_rw(1); 
0F7C:  BSF    F8C.2
....................    delay_cycles(1); 
0F7E:  NOP   
....................    lcd_output_enable(1); 
0F80:  BSF    F8C.0
....................    delay_cycles(1); 
0F82:  NOP   
....................    high = lcd_read_nibble(); 
0F84:  RCALL  0F68
0F86:  MOVFF  01,613
....................        
....................    lcd_output_enable(0); 
0F8A:  BCF    F8C.0
....................    delay_cycles(1); 
0F8C:  NOP   
....................    lcd_output_enable(1); 
0F8E:  BSF    F8C.0
....................    delay_us(1); 
0F90:  BRA    0F92
0F92:  BRA    0F94
0F94:  NOP   
....................    low = lcd_read_nibble(); 
0F96:  RCALL  0F68
0F98:  MOVFF  01,612
....................        
....................    lcd_output_enable(0); 
0F9C:  BCF    F8C.0
....................  
....................  #if defined(__PCB__) 
....................    set_tris_lcd(LCD_INPUT_MAP); 
....................  #else 
....................   #if (defined(LCD_DATA4) && defined(LCD_DATA5) && defined(LCD_DATA6) && defined(LCD_DATA7)) 
....................    output_drive(LCD_DATA4); 
....................    output_drive(LCD_DATA5); 
....................    output_drive(LCD_DATA6); 
....................    output_drive(LCD_DATA7); 
....................   #else 
....................    lcdtris.data = 0x0; 
0F9E:  MOVLW  0F
0FA0:  ANDWF  F95,W
0FA2:  MOVWF  F95
....................   #endif 
....................  #endif 
....................  
....................    return( (high<<4) | low); 
0FA4:  MOVLB  6
0FA6:  SWAPF  x13,W
0FA8:  MOVWF  00
0FAA:  MOVLW  F0
0FAC:  ANDWF  00,F
0FAE:  MOVF   00,W
0FB0:  IORWF  x12,W
0FB2:  MOVWF  01
.................... } 
0FB4:  MOVLB  0
0FB6:  GOTO   0FBE (RETURN)
....................  
.................... BYTE lcd_read_nibble(void) 
.................... { 
....................   #if (defined(LCD_DATA4) && defined(LCD_DATA5) && defined(LCD_DATA6) && defined(LCD_DATA7)) 
....................    BYTE n = 0x00; 
....................  
....................    /* Read the data port */ 
....................    n |= input(LCD_DATA4); 
....................    n |= input(LCD_DATA5) << 1; 
....................    n |= input(LCD_DATA6) << 2; 
....................    n |= input(LCD_DATA7) << 3; 
....................     
....................    return(n); 
....................   #else 
....................    return(lcd.data); 
*
0F68:  MOVF   F83,W
0F6A:  MOVWF  00
0F6C:  SWAPF  00,W
0F6E:  ANDLW  0F
0F70:  MOVWF  01
....................   #endif 
.................... } 
0F72:  RETLW  00
....................  
.................... void lcd_send_nibble(BYTE n) 
.................... { 
....................   #if (defined(LCD_DATA4) && defined(LCD_DATA5) && defined(LCD_DATA6) && defined(LCD_DATA7)) 
....................    /* Write to the data port */ 
....................    output_bit(LCD_DATA4, bit_test(n, 0)); 
....................    output_bit(LCD_DATA5, bit_test(n, 1)); 
....................    output_bit(LCD_DATA6, bit_test(n, 2)); 
....................    output_bit(LCD_DATA7, bit_test(n, 3)); 
....................   #else       
....................    lcdlat.data = n; 
*
0F46:  MOVLB  6
0F48:  SWAPF  x13,W
0F4A:  ANDLW  F0
0F4C:  MOVWF  00
0F4E:  MOVLW  0F
0F50:  ANDWF  F8C,W
0F52:  IORWF  00,W
0F54:  MOVWF  F8C
....................   #endif 
....................        
....................    delay_cycles(1); 
0F56:  NOP   
....................    lcd_output_enable(1); 
0F58:  BSF    F8C.0
....................    delay_us(2); 
0F5A:  MOVLW  03
0F5C:  MOVWF  00
0F5E:  DECFSZ 00,F
0F60:  BRA    0F5E
....................    lcd_output_enable(0); 
0F62:  BCF    F8C.0
.................... } 
0F64:  MOVLB  0
0F66:  RETLW  00
....................  
.................... void lcd_send_byte(BYTE address, BYTE n) 
.................... { 
....................    lcd_output_rs(0); 
*
0FBA:  BCF    F8C.1
....................    while ( bit_test(lcd_read_byte(),7) ) ; 
0FBC:  BRA    0F74
0FBE:  MOVFF  01,612
0FC2:  MOVLB  6
0FC4:  BTFSS  01.7
0FC6:  BRA    0FCC
0FC8:  MOVLB  0
0FCA:  BRA    0FBC
....................    lcd_output_rs(address); 
0FCC:  BCF    F8C.1
0FCE:  BTFSC  x10.0
0FD0:  BSF    F8C.1
....................    delay_cycles(1); 
0FD2:  NOP   
....................    lcd_output_rw(0); 
0FD4:  BCF    F8C.2
....................    delay_cycles(1); 
0FD6:  NOP   
....................    lcd_output_enable(0); 
0FD8:  BCF    F8C.0
....................    lcd_send_nibble(n >> 4); 
0FDA:  SWAPF  x11,W
0FDC:  MOVWF  x12
0FDE:  MOVLW  0F
0FE0:  ANDWF  x12,F
0FE2:  MOVFF  612,613
0FE6:  MOVLB  0
0FE8:  RCALL  0F46
....................    lcd_send_nibble(n & 0xf); 
0FEA:  MOVLB  6
0FEC:  MOVF   x11,W
0FEE:  ANDLW  0F
0FF0:  MOVWF  x12
0FF2:  MOVWF  x13
0FF4:  MOVLB  0
0FF6:  RCALL  0F46
.................... } 
0FF8:  RETLW  00
....................  
.................... void lcd_init(void)  
.................... { 
....................    BYTE i; 
....................  
....................  #if defined(__PCB__) 
....................    set_tris_lcd(LCD_OUTPUT_MAP); 
....................  #else 
....................   #if (defined(LCD_DATA4) && defined(LCD_DATA5) && defined(LCD_DATA6) && defined(LCD_DATA7)) 
....................    output_drive(LCD_DATA4); 
....................    output_drive(LCD_DATA5); 
....................    output_drive(LCD_DATA6); 
....................    output_drive(LCD_DATA7); 
....................   #else 
....................    lcdtris.data = 0x0; 
0FFA:  MOVLW  0F
0FFC:  ANDWF  F95,W
0FFE:  MOVWF  F95
....................   #endif 
....................    lcd_enable_tris(); 
1000:  BCF    F95.0
....................    lcd_rs_tris(); 
1002:  BCF    F95.1
....................    lcd_rw_tris(); 
1004:  BCF    F95.2
....................  #endif 
....................  
....................    lcd_output_rs(0); 
1006:  BCF    F8C.1
....................    lcd_output_rw(0); 
1008:  BCF    F8C.2
....................    lcd_output_enable(0); 
100A:  BCF    F8C.0
....................      
....................    delay_ms(15); 
100C:  MOVLW  0F
100E:  MOVLB  6
1010:  MOVWF  x0C
1012:  MOVLB  0
1014:  RCALL  0F1E
....................    for(i=1;i<=3;++i) 
1016:  MOVLW  01
1018:  MOVLB  6
101A:  MOVWF  x02
101C:  MOVF   x02,W
101E:  SUBLW  03
1020:  BNC   103A
....................    { 
....................        lcd_send_nibble(3); 
1022:  MOVLW  03
1024:  MOVWF  x13
1026:  MOVLB  0
1028:  RCALL  0F46
....................        delay_ms(5); 
102A:  MOVLW  05
102C:  MOVLB  6
102E:  MOVWF  x0C
1030:  MOVLB  0
1032:  RCALL  0F1E
....................    } 
1034:  MOVLB  6
1036:  INCF   x02,F
1038:  BRA    101C
....................      
....................    lcd_send_nibble(2); 
103A:  MOVLW  02
103C:  MOVWF  x13
103E:  MOVLB  0
1040:  RCALL  0F46
....................    for(i=0;i<=3;++i) 
1042:  MOVLB  6
1044:  CLRF   x02
1046:  MOVF   x02,W
1048:  SUBLW  03
104A:  BNC   1072
....................       lcd_send_byte(0,LCD_INIT_STRING[i]); 
104C:  CLRF   03
104E:  MOVF   x02,W
1050:  MOVFF  FF2,603
1054:  BCF    FF2.7
1056:  MOVLB  0
1058:  CALL   0096
105C:  MOVLB  6
105E:  BTFSC  x03.7
1060:  BSF    FF2.7
1062:  MOVWF  x03
1064:  CLRF   x10
1066:  MOVWF  x11
1068:  MOVLB  0
106A:  RCALL  0FBA
106C:  MOVLB  6
106E:  INCF   x02,F
1070:  BRA    1046
.................... } 
1072:  MOVLB  0
1074:  GOTO   1EA2 (RETURN)
....................  
.................... void lcd_gotoxy(BYTE x, BYTE y) 
.................... { 
....................    BYTE address; 
....................  
....................    if(y!=1) 
1078:  MOVLB  6
107A:  DECFSZ x0D,W
107C:  BRA    1080
107E:  BRA    1086
....................       address=LCD_LINE_TWO; 
1080:  MOVLW  40
1082:  MOVWF  x0E
....................    else 
1084:  BRA    1088
....................       address=0; 
1086:  CLRF   x0E
....................       
....................    address+=x-1; 
1088:  MOVLW  01
108A:  SUBWF  x0C,W
108C:  ADDWF  x0E,F
....................    lcd_send_byte(0,0x80|address); 
108E:  MOVF   x0E,W
1090:  IORLW  80
1092:  MOVWF  x0F
1094:  CLRF   x10
1096:  MOVWF  x11
1098:  MOVLB  0
109A:  RCALL  0FBA
.................... } 
109C:  RETLW  00
....................  
.................... void lcd_putc(char c) 
.................... { 
....................    switch (c) 
....................    { 
109E:  MOVLB  6
10A0:  MOVF   x0B,W
10A2:  XORLW  0C
10A4:  MOVLB  0
10A6:  BZ    10B2
10A8:  XORLW  06
10AA:  BZ    10CA
10AC:  XORLW  02
10AE:  BZ    10DA
10B0:  BRA    10E8
....................       case '\f'   :  lcd_send_byte(0,1); 
10B2:  MOVLB  6
10B4:  CLRF   x10
10B6:  MOVLW  01
10B8:  MOVWF  x11
10BA:  MOVLB  0
10BC:  RCALL  0FBA
....................                      delay_ms(2); 
10BE:  MOVLW  02
10C0:  MOVLB  6
10C2:  MOVWF  x0C
10C4:  MOVLB  0
10C6:  RCALL  0F1E
....................                      break; 
10C8:  BRA    10F8
....................                       
....................       case '\n'   : lcd_gotoxy(1,2);        break; 
10CA:  MOVLW  01
10CC:  MOVLB  6
10CE:  MOVWF  x0C
10D0:  MOVLW  02
10D2:  MOVWF  x0D
10D4:  MOVLB  0
10D6:  RCALL  1078
10D8:  BRA    10F8
....................       
....................       case '\b'   : lcd_send_byte(0,0x10);  break; 
10DA:  MOVLB  6
10DC:  CLRF   x10
10DE:  MOVLW  10
10E0:  MOVWF  x11
10E2:  MOVLB  0
10E4:  RCALL  0FBA
10E6:  BRA    10F8
....................       
....................       default     : lcd_send_byte(1,c);     break; 
10E8:  MOVLW  01
10EA:  MOVLB  6
10EC:  MOVWF  x10
10EE:  MOVFF  60B,611
10F2:  MOVLB  0
10F4:  RCALL  0FBA
10F6:  BRA    10F8
....................    } 
.................... } 
10F8:  RETLW  00
....................   
.................... char lcd_getc(BYTE x, BYTE y) 
.................... { 
....................    char value; 
....................  
....................    lcd_gotoxy(x,y); 
....................    while ( bit_test(lcd_read_byte(),7) ); // wait until busy flag is low 
....................    lcd_output_rs(1); 
....................    value = lcd_read_byte(); 
....................    lcd_output_rs(0); 
....................     
....................    return(value); 
.................... } 
....................  
.................... #use rs232(baud=9600, xmit=PIN_C6, rcv=PIN_C7,STREAM=pc 1) 
.................... #use i2c(master,FAST, scl=PIN_B1, sda=PIN_B0,FORCE_SW) 
*
111A:  MOVLW  08
111C:  MOVWF  01
111E:  NOP   
1120:  BCF    F8A.1
1122:  BCF    F93.1
1124:  NOP   
1126:  MOVLB  6
1128:  RLCF   x03,F
112A:  BCF    F8A.0
112C:  BTFSC  FD8.0
112E:  BSF    F93.0
1130:  BTFSS  FD8.0
1132:  BCF    F93.0
1134:  BSF    F93.1
1136:  BTFSS  F81.1
1138:  BRA    1136
113A:  DECFSZ 01,F
113C:  BRA    1140
113E:  BRA    1144
1140:  MOVLB  0
1142:  BRA    111E
1144:  NOP   
1146:  BCF    F8A.1
1148:  BCF    F93.1
114A:  NOP   
114C:  BSF    F93.0
114E:  NOP   
1150:  NOP   
1152:  BSF    F93.1
1154:  BTFSS  F81.1
1156:  BRA    1154
1158:  CLRF   01
115A:  NOP   
115C:  BTFSC  F81.0
115E:  BSF    01.0
1160:  BCF    F8A.1
1162:  BCF    F93.1
1164:  BCF    F8A.0
1166:  BCF    F93.0
1168:  MOVLB  0
116A:  RETLW  00
....................  
.................... int dato1=0,dato2=0,x=0,b=0,b1=0,j=5000; 
.................... long l1=3522,d=24,dato=24,c=24; 
.................... const int voz[]={125, 
.................... 134, 
.................... 147, 
.................... 154, 
.................... 161, 
.................... 160, 
.................... 155, 
.................... 144, 
.................... 132, 
.................... 119, 
.................... 108, 
.................... 105, 
.................... 106, 
.................... 115, 
.................... 126, 
.................... 136, 
.................... 144, 
.................... 149, 
.................... 147, 
.................... 153, 
.................... 155, 
.................... 155, 
.................... 151, 
.................... 136, 
.................... 120, 
.................... 98, 
.................... 77, 
.................... 65, 
.................... 64, 
.................... 75, 
.................... 96, 
.................... 118, 
.................... 138, 
.................... 153, 
.................... 163, 
.................... 170, 
.................... 170, 
.................... 163, 
.................... 145, 
.................... 125, 
.................... 108, 
.................... 96, 
.................... 93, 
.................... 100, 
.................... 114, 
.................... 133, 
.................... 148, 
.................... 157, 
.................... 154, 
.................... 158, 
.................... 167, 
.................... 169, 
.................... 165, 
.................... 149, 
.................... 127, 
.................... 98, 
.................... 72, 
.................... 54, 
.................... 49, 
.................... 61, 
.................... 84, 
.................... 114, 
.................... 139, 
.................... 158, 
.................... 167, 
.................... 171, 
.................... 172, 
.................... 164, 
.................... 146, 
.................... 124, 
.................... 106, 
.................... 96, 
.................... 95, 
.................... 103, 
.................... 117, 
.................... 131, 
.................... 145, 
.................... 153, 
.................... 154, 
.................... 165, 
.................... 173, 
.................... 173, 
.................... 165, 
.................... 145, 
.................... 117, 
.................... 84, 
.................... 58, 
.................... 45, 
.................... 49, 
.................... 70, 
.................... 103, 
.................... 135, 
.................... 160, 
.................... 172, 
.................... 172, 
.................... 167, 
.................... 158, 
.................... 142, 
.................... 123, 
.................... 105, 
.................... 97, 
.................... 97, 
.................... 104, 
.................... 115, 
.................... 130, 
.................... 143, 
.................... 156, 
.................... 157, 
.................... 170, 
.................... 180, 
.................... 180, 
.................... 166, 
.................... 140, 
.................... 109, 
.................... 75, 
.................... 52, 
.................... 40, 
.................... 51, 
.................... 81, 
.................... 116, 
.................... 150, 
.................... 171, 
.................... 174, 
.................... 162, 
.................... 150, 
.................... 137, 
.................... 127, 
.................... 115, 
.................... 107, 
.................... 105, 
.................... 106, 
.................... 112, 
.................... 122, 
.................... 134, 
.................... 146, 
.................... 153, 
.................... 162, 
.................... 180, 
.................... 190, 
.................... 185, 
.................... 162, 
.................... 128, 
.................... 89, 
.................... 56, 
.................... 39, 
.................... 44, 
.................... 65, 
.................... 99, 
.................... 135, 
.................... 162, 
.................... 173, 
.................... 166, 
.................... 151, 
.................... 138, 
.................... 127, 
.................... 117, 
.................... 110, 
.................... 107, 
.................... 107, 
.................... 109, 
.................... 116, 
.................... 127, 
.................... 141, 
.................... 154, 
.................... 160, 
.................... 183, 
.................... 193, 
.................... 189, 
.................... 166, 
.................... 129, 
.................... 92, 
.................... 59, 
.................... 43, 
.................... 45, 
.................... 66, 
.................... 100, 
.................... 136, 
.................... 163, 
.................... 170, 
.................... 161, 
.................... 145, 
.................... 133, 
.................... 127, 
.................... 122, 
.................... 115, 
.................... 108, 
.................... 103, 
.................... 103, 
.................... 109, 
.................... 122, 
.................... 138, 
.................... 157, 
.................... 170, 
.................... 190, 
.................... 198, 
.................... 194, 
.................... 169, 
.................... 131, 
.................... 91, 
.................... 58, 
.................... 40, 
.................... 43, 
.................... 64, 
.................... 97, 
.................... 132, 
.................... 159, 
.................... 167, 
.................... 160, 
.................... 146, 
.................... 138, 
.................... 135, 
.................... 133, 
.................... 121, 
.................... 107, 
.................... 98, 
.................... 96, 
.................... 102, 
.................... 116, 
.................... 135, 
.................... 158, 
.................... 173, 
.................... 186, 
.................... 197, 
.................... 191, 
.................... 168, 
.................... 131, 
.................... 94, 
.................... 66, 
.................... 52, 
.................... 54, 
.................... 69, 
.................... 94, 
.................... 119, 
.................... 138, 
.................... 149, 
.................... 153, 
.................... 154, 
.................... 155, 
.................... 156, 
.................... 148, 
.................... 127, 
.................... 101, 
.................... 86, 
.................... 86, 
.................... 98, 
.................... 114, 
.................... 132, 
.................... 151, 
.................... 166, 
.................... 179, 
.................... 198, 
.................... 201, 
.................... 186, 
.................... 150, 
.................... 107, 
.................... 71, 
.................... 52, 
.................... 47, 
.................... 58, 
.................... 76, 
.................... 101, 
.................... 127, 
.................... 147, 
.................... 164, 
.................... 173, 
.................... 170, 
.................... 163, 
.................... 147, 
.................... 124, 
.................... 96, 
.................... 83, 
.................... 87, 
.................... 99, 
.................... 113, 
.................... 127, 
.................... 140, 
.................... 156, 
.................... 170, 
.................... 198, 
.................... 210, 
.................... 196, 
.................... 160, 
.................... 117, 
.................... 81, 
.................... 60, 
.................... 50, 
.................... 50, 
.................... 61, 
.................... 81, 
.................... 111, 
.................... 144, 
.................... 172, 
.................... 184, 
.................... 176, 
.................... 159, 
.................... 143, 
.................... 126, 
.................... 106, 
.................... 91, 
.................... 90, 
.................... 99, 
.................... 110, 
.................... 122, 
.................... 134, 
.................... 148, 
.................... 163, 
.................... 187, 
.................... 210, 
.................... 202, 
.................... 176, 
.................... 132, 
.................... 98, 
.................... 71, 
.................... 59, 
.................... 47, 
.................... 50, 
.................... 67, 
.................... 99, 
.................... 135, 
.................... 166, 
.................... 181, 
.................... 175, 
.................... 157, 
.................... 143, 
.................... 132, 
.................... 121, 
.................... 100, 
.................... 93, 
.................... 98, 
.................... 112, 
.................... 122, 
.................... 132, 
.................... 140, 
.................... 154, 
.................... 155, 
.................... 179, 
.................... 193, 
.................... 181, 
.................... 156, 
.................... 124, 
.................... 103, 
.................... 81, 
.................... 69, 
.................... 60, 
.................... 64, 
.................... 80, 
.................... 107, 
.................... 132, 
.................... 153, 
.................... 162, 
.................... 159, 
.................... 149, 
.................... 142, 
.................... 136, 
.................... 127, 
.................... 118, 
.................... 114, 
.................... 119, 
.................... 120, 
.................... 117, 
.................... 118, 
.................... 119, 
.................... 125, 
.................... 131, 
.................... 146, 
.................... 170, 
.................... 177, 
.................... 178, 
.................... 176, 
.................... 161, 
.................... 133, 
.................... 106, 
.................... 76, 
.................... 61, 
.................... 59, 
.................... 64, 
.................... 79, 
.................... 96, 
.................... 116, 
.................... 132, 
.................... 148, 
.................... 162, 
.................... 170, 
.................... 173, 
.................... 169, 
.................... 160, 
.................... 143, 
.................... 119, 
.................... 97, 
.................... 82, 
.................... 81, 
.................... 91, 
.................... 110, 
.................... 131, 
.................... 157, 
.................... 181, 
.................... 194, 
.................... 201, 
.................... 189, 
.................... 161, 
.................... 127, 
.................... 87, 
.................... 62, 
.................... 48, 
.................... 49, 
.................... 59, 
.................... 75, 
.................... 99, 
.................... 123, 
.................... 144, 
.................... 164, 
.................... 177, 
.................... 185, 
.................... 185, 
.................... 173, 
.................... 153, 
.................... 127, 
.................... 99, 
.................... 80, 
.................... 72, 
.................... 79, 
.................... 97, 
.................... 123, 
.................... 144, 
.................... 171, 
.................... 189, 
.................... 199, 
.................... 199, 
.................... 181, 
.................... 150, 
.................... 113, 
.................... 76, 
.................... 55, 
.................... 46, 
.................... 51, 
.................... 64, 
.................... 85, 
.................... 109, 
.................... 131, 
.................... 151, 
.................... 167, 
.................... 178, 
.................... 184, 
.................... 181, 
.................... 166, 
.................... 143, 
.................... 117, 
.................... 92, 
.................... 76, 
.................... 75, 
.................... 88, 
.................... 108, 
.................... 132, 
.................... 153, 
.................... 176, 
.................... 189, 
.................... 194, 
.................... 189, 
.................... 170, 
.................... 141, 
.................... 106, 
.................... 74, 
.................... 55, 
.................... 49, 
.................... 55, 
.................... 69, 
.................... 91, 
.................... 114, 
.................... 134, 
.................... 153, 
.................... 166, 
.................... 177, 
.................... 182, 
.................... 178, 
.................... 164, 
.................... 141, 
.................... 115, 
.................... 91, 
.................... 78, 
.................... 78, 
.................... 91, 
.................... 112, 
.................... 133, 
.................... 153, 
.................... 173, 
.................... 185, 
.................... 191, 
.................... 186, 
.................... 168, 
.................... 141, 
.................... 107, 
.................... 75, 
.................... 55, 
.................... 46, 
.................... 52, 
.................... 67, 
.................... 92, 
.................... 117, 
.................... 137, 
.................... 156, 
.................... 168, 
.................... 179, 
.................... 182, 
.................... 180, 
.................... 168, 
.................... 144, 
.................... 117, 
.................... 90, 
.................... 75, 
.................... 73, 
.................... 86, 
.................... 108, 
.................... 133, 
.................... 153, 
.................... 173, 
.................... 186, 
.................... 192, 
.................... 189, 
.................... 175, 
.................... 149, 
.................... 116, 
.................... 80, 
.................... 54, 
.................... 42, 
.................... 45, 
.................... 61, 
.................... 86, 
.................... 113, 
.................... 136, 
.................... 155, 
.................... 166, 
.................... 173, 
.................... 176, 
.................... 176, 
.................... 168, 
.................... 152, 
.................... 128, 
.................... 102, 
.................... 82, 
.................... 73, 
.................... 80, 
.................... 99, 
.................... 123, 
.................... 146, 
.................... 166, 
.................... 181, 
.................... 188, 
.................... 187, 
.................... 175, 
.................... 156, 
.................... 130, 
.................... 101, 
.................... 74, 
.................... 56, 
.................... 48, 
.................... 53, 
.................... 68, 
.................... 95, 
.................... 121, 
.................... 146, 
.................... 164, 
.................... 174, 
.................... 178, 
.................... 175, 
.................... 169, 
.................... 157, 
.................... 141, 
.................... 122, 
.................... 100, 
.................... 86, 
.................... 80, 
.................... 87, 
.................... 104, 
.................... 127, 
.................... 148, 
.................... 165, 
.................... 177, 
.................... 180, 
.................... 177, 
.................... 168, 
.................... 151, 
.................... 130, 
.................... 105, 
.................... 82, 
.................... 66, 
.................... 59, 
.................... 60, 
.................... 69, 
.................... 90, 
.................... 114, 
.................... 137, 
.................... 158, 
.................... 171, 
.................... 178, 
.................... 176, 
.................... 169, 
.................... 157, 
.................... 142, 
.................... 127, 
.................... 110, 
.................... 97, 
.................... 89, 
.................... 89, 
.................... 98, 
.................... 113, 
.................... 129, 
.................... 146, 
.................... 158, 
.................... 163, 
.................... 164, 
.................... 157, 
.................... 150, 
.................... 141, 
.................... 129, 
.................... 117, 
.................... 102, 
.................... 89, 
.................... 81, 
.................... 80, 
.................... 85, 
.................... 95, 
.................... 111, 
.................... 127, 
.................... 143, 
.................... 155, 
.................... 163, 
.................... 164, 
.................... 160, 
.................... 151, 
.................... 142, 
.................... 132, 
.................... 124, 
.................... 117, 
.................... 111, 
.................... 107, 
.................... 104, 
.................... 107, 
.................... 112, 
.................... 121, 
.................... 131, 
.................... 140, 
.................... 148, 
.................... 152, 
.................... 150, 
.................... 145, 
.................... 138, 
.................... 129, 
.................... 125, 
.................... 121, 
.................... 118, 
.................... 116, 
.................... 112, 
.................... 109, 
.................... 107, 
.................... 107, 
.................... 110, 
.................... 116, 
.................... 124, 
.................... 131, 
.................... 137, 
.................... 142, 
.................... 141, 
.................... 141, 
.................... 138, 
.................... 135, 
.................... 132, 
.................... 128, 
.................... 127, 
.................... 127, 
.................... 127, 
.................... 127, 
.................... 127, 
.................... 128, 
.................... 127, 
.................... 126, 
.................... 125, 
.................... 122, 
.................... 124, 
.................... 123, 
.................... 125, 
.................... 126, 
.................... 129, 
.................... 133, 
.................... 126, 
.................... 129, 
.................... 129, 
.................... 132, 
.................... 131, 
.................... 132, 
.................... 130, 
.................... 127, 
.................... 126, 
.................... 121, 
.................... 119, 
.................... 116, 
.................... 111, 
.................... 116, 
.................... 116, 
.................... 121, 
.................... 126, 
.................... 129, 
.................... 134, 
.................... 135, 
.................... 137, 
.................... 138, 
.................... 138, 
.................... 136, 
.................... 134, 
.................... 131, 
.................... 127, 
.................... 126, 
.................... 125, 
.................... 123, 
.................... 127, 
.................... 125, 
.................... 120, 
.................... 125, 
.................... 124, 
.................... 130, 
.................... 126, 
.................... 137, 
.................... 126, 
.................... 127, 
.................... 114, 
.................... 119, 
.................... 120, 
.................... 125, 
.................... 127, 
.................... 126, 
.................... 133, 
.................... 135, 
.................... 135, 
.................... 127, 
.................... 127, 
.................... 128, 
.................... 131, 
.................... 133, 
.................... 139, 
.................... 139, 
.................... 136, 
.................... 127, 
.................... 120, 
.................... 111, 
.................... 110, 
.................... 109, 
.................... 115, 
.................... 120, 
.................... 127, 
.................... 130, 
.................... 132, 
.................... 130, 
.................... 138, 
.................... 138, 
.................... 136, 
.................... 128, 
.................... 123, 
.................... 116, 
.................... 113, 
.................... 112, 
.................... 118, 
.................... 122, 
.................... 130, 
.................... 131, 
.................... 142, 
.................... 138, 
.................... 154, 
.................... 176, 
.................... 176, 
.................... 163, 
.................... 125, 
.................... 94, 
.................... 67, 
.................... 66, 
.................... 79, 
.................... 111, 
.................... 134, 
.................... 147, 
.................... 141, 
.................... 127, 
.................... 111, 
.................... 110, 
.................... 123, 
.................... 155, 
.................... 170, 
.................... 166, 
.................... 129, 
.................... 101, 
.................... 82, 
.................... 88, 
.................... 104, 
.................... 129, 
.................... 145, 
.................... 155, 
.................... 151, 
.................... 156, 
.................... 193, 
.................... 198, 
.................... 184, 
.................... 131, 
.................... 81, 
.................... 42, 
.................... 41, 
.................... 68, 
.................... 117, 
.................... 154, 
.................... 164, 
.................... 142, 
.................... 112, 
.................... 85, 
.................... 86, 
.................... 112, 
.................... 154, 
.................... 186, 
.................... 189, 
.................... 151, 
.................... 101, 
.................... 70, 
.................... 75, 
.................... 98, 
.................... 130, 
.................... 148, 
.................... 159, 
.................... 145, 
.................... 159, 
.................... 187, 
.................... 194, 
.................... 176, 
.................... 131, 
.................... 85, 
.................... 50, 
.................... 49, 
.................... 71, 
.................... 119, 
.................... 154, 
.................... 163, 
.................... 139, 
.................... 108, 
.................... 86, 
.................... 90, 
.................... 118, 
.................... 155, 
.................... 188, 
.................... 188, 
.................... 154, 
.................... 102, 
.................... 71, 
.................... 74, 
.................... 96, 
.................... 127, 
.................... 146, 
.................... 153, 
.................... 145, 
.................... 137, 
.................... 175, 
.................... 202, 
.................... 198, 
.................... 152, 
.................... 95, 
.................... 48, 
.................... 35, 
.................... 57, 
.................... 109, 
.................... 158, 
.................... 178, 
.................... 158, 
.................... 116, 
.................... 81, 
.................... 73, 
.................... 101, 
.................... 144, 
.................... 187, 
.................... 201, 
.................... 173, 
.................... 118, 
.................... 73, 
.................... 64, 
.................... 84, 
.................... 115, 
.................... 145, 
.................... 155, 
.................... 151, 
.................... 132, 
.................... 156, 
.................... 193, 
.................... 210, 
.................... 185, 
.................... 124, 
.................... 65, 
.................... 29, 
.................... 30, 
.................... 70, 
.................... 130, 
.................... 175, 
.................... 181, 
.................... 146, 
.................... 103, 
.................... 72, 
.................... 77, 
.................... 114, 
.................... 164, 
.................... 201, 
.................... 201, 
.................... 157, 
.................... 98, 
.................... 61, 
.................... 64, 
.................... 92, 
.................... 127, 
.................... 151, 
.................... 160, 
.................... 147, 
.................... 139, 
.................... 172, 
.................... 196, 
.................... 196, 
.................... 158, 
.................... 104, 
.................... 58, 
.................... 33, 
.................... 44, 
.................... 86, 
.................... 140, 
.................... 173, 
.................... 173, 
.................... 142, 
.................... 104, 
.................... 79, 
.................... 85, 
.................... 117, 
.................... 161, 
.................... 194, 
.................... 191, 
.................... 149, 
.................... 99, 
.................... 68, 
.................... 69, 
.................... 93, 
.................... 127, 
.................... 151, 
.................... 164, 
.................... 152, 
.................... 159, 
.................... 181, 
.................... 186, 
.................... 172, 
.................... 134, 
.................... 95, 
.................... 62, 
.................... 42, 
.................... 46, 
.................... 83, 
.................... 129, 
.................... 163, 
.................... 171, 
.................... 153, 
.................... 125, 
.................... 104, 
.................... 100, 
.................... 120, 
.................... 152, 
.................... 172, 
.................... 163, 
.................... 132, 
.................... 104, 
.................... 103, 
.................... 115, 
.................... 131, 
.................... 146, 
.................... 154, 
.................... 148, 
.................... 134, 
.................... 124, 
.................... 114, 
.................... 114, 
.................... 116, 
.................... 121, 
.................... 131, 
.................... 139, 
.................... 144, 
.................... 144, 
.................... 139, 
.................... 128, 
.................... 114, 
.................... 97, 
.................... 86, 
.................... 84, 
.................... 90, 
.................... 104, 
.................... 124, 
.................... 142, 
.................... 155, 
.................... 161, 
.................... 161, 
.................... 159, 
.................... 154, 
.................... 148, 
.................... 137, 
.................... 127, 
.................... 115, 
.................... 99, 
.................... 90, 
.................... 87, 
.................... 94, 
.................... 109, 
.................... 127, 
.................... 145, 
.................... 155, 
.................... 161, 
.................... 161, 
.................... 159, 
.................... 155, 
.................... 149, 
.................... 139, 
.................... 122, 
.................... 102, 
.................... 84, 
.................... 72, 
.................... 67, 
.................... 76, 
.................... 97, 
.................... 120, 
.................... 141, 
.................... 156, 
.................... 167, 
.................... 171, 
.................... 168, 
.................... 160, 
.................... 150, 
.................... 139, 
.................... 127, 
.................... 115, 
.................... 104, 
.................... 96, 
.................... 91, 
.................... 92, 
.................... 100, 
.................... 116, 
.................... 131, 
.................... 147, 
.................... 157, 
.................... 167, 
.................... 170, 
.................... 172, 
.................... 167, 
.................... 158, 
.................... 140, 
.................... 116, 
.................... 88, 
.................... 66, 
.................... 56, 
.................... 56, 
.................... 70, 
.................... 93, 
.................... 122, 
.................... 145, 
.................... 163, 
.................... 173, 
.................... 175, 
.................... 172, 
.................... 166, 
.................... 156, 
.................... 143, 
.................... 123, 
.................... 103, 
.................... 85, 
.................... 76, 
.................... 81, 
.................... 94, 
.................... 116, 
.................... 137, 
.................... 153, 
.................... 170, 
.................... 184, 
.................... 191, 
.................... 191, 
.................... 179, 
.................... 154, 
.................... 118, 
.................... 78, 
.................... 50, 
.................... 40, 
.................... 47, 
.................... 64, 
.................... 91, 
.................... 120, 
.................... 141, 
.................... 158, 
.................... 168, 
.................... 175, 
.................... 178, 
.................... 175, 
.................... 163, 
.................... 142, 
.................... 114, 
.................... 88, 
.................... 71, 
.................... 71, 
.................... 85, 
.................... 110, 
.................... 133, 
.................... 153, 
.................... 173, 
.................... 188, 
.................... 198, 
.................... 195, 
.................... 180, 
.................... 148, 
.................... 107, 
.................... 66, 
.................... 42, 
.................... 35, 
.................... 44, 
.................... 67, 
.................... 98, 
.................... 127, 
.................... 150, 
.................... 165, 
.................... 177, 
.................... 184, 
.................... 185, 
.................... 177, 
.................... 155, 
.................... 125, 
.................... 93, 
.................... 70, 
.................... 66, 
.................... 75, 
.................... 100, 
.................... 126, 
.................... 151, 
.................... 177, 
.................... 195, 
.................... 207, 
.................... 200, 
.................... 181, 
.................... 143, 
.................... 100, 
.................... 61, 
.................... 37, 
.................... 31, 
.................... 46, 
.................... 72, 
.................... 105, 
.................... 133, 
.................... 154, 
.................... 170, 
.................... 181, 
.................... 187, 
.................... 185, 
.................... 170, 
.................... 140, 
.................... 108, 
.................... 83, 
.................... 69, 
.................... 72, 
.................... 91, 
.................... 112, 
.................... 141, 
.................... 172, 
.................... 196, 
.................... 206, 
.................... 196, 
.................... 171, 
.................... 132, 
.................... 92, 
.................... 61, 
.................... 45, 
.................... 45, 
.................... 59, 
.................... 86, 
.................... 119, 
.................... 147, 
.................... 169, 
.................... 184, 
.................... 190, 
.................... 182, 
.................... 161, 
.................... 128, 
.................... 98, 
.................... 74, 
.................... 66, 
.................... 72, 
.................... 92, 
.................... 114, 
.................... 146, 
.................... 185, 
.................... 212, 
.................... 221, 
.................... 205, 
.................... 172, 
.................... 127, 
.................... 81, 
.................... 48, 
.................... 33, 
.................... 36, 
.................... 56, 
.................... 89, 
.................... 127, 
.................... 157, 
.................... 179, 
.................... 195, 
.................... 196, 
.................... 183, 
.................... 153, 
.................... 118, 
.................... 85, 
.................... 64, 
.................... 59, 
.................... 70, 
.................... 92, 
.................... 126, 
.................... 170, 
.................... 206, 
.................... 227, 
.................... 221, 
.................... 195, 
.................... 151, 
.................... 103, 
.................... 61, 
.................... 34, 
.................... 28, 
.................... 40, 
.................... 69, 
.................... 106, 
.................... 143, 
.................... 172, 
.................... 196, 
.................... 204, 
.................... 197, 
.................... 171, 
.................... 133, 
.................... 96, 
.................... 66, 
.................... 54, 
.................... 59, 
.................... 80, 
.................... 115, 
.................... 159, 
.................... 197, 
.................... 223, 
.................... 224, 
.................... 203, 
.................... 162, 
.................... 112, 
.................... 66, 
.................... 37, 
.................... 28, 
.................... 39, 
.................... 65, 
.................... 102, 
.................... 137, 
.................... 169, 
.................... 192, 
.................... 202, 
.................... 194, 
.................... 169, 
.................... 133, 
.................... 97, 
.................... 70, 
.................... 60, 
.................... 67, 
.................... 89, 
.................... 126, 
.................... 167, 
.................... 200, 
.................... 220, 
.................... 215, 
.................... 191, 
.................... 147, 
.................... 101, 
.................... 61, 
.................... 37, 
.................... 31, 
.................... 45, 
.................... 72, 
.................... 109, 
.................... 143, 
.................... 173, 
.................... 193, 
.................... 200, 
.................... 187, 
.................... 159, 
.................... 124, 
.................... 88, 
.................... 65, 
.................... 60, 
.................... 72, 
.................... 103, 
.................... 148, 
.................... 189, 
.................... 217, 
.................... 224, 
.................... 208, 
.................... 170, 
.................... 123, 
.................... 76, 
.................... 44, 
.................... 28, 
.................... 32, 
.................... 55, 
.................... 89, 
.................... 126, 
.................... 161, 
.................... 190, 
.................... 203, 
.................... 199, 
.................... 175, 
.................... 139, 
.................... 102, 
.................... 72, 
.................... 60, 
.................... 65, 
.................... 90, 
.................... 131, 
.................... 174, 
.................... 209, 
.................... 222, 
.................... 214, 
.................... 183, 
.................... 138, 
.................... 90, 
.................... 54, 
.................... 32, 
.................... 30, 
.................... 47, 
.................... 78, 
.................... 116, 
.................... 151, 
.................... 183, 
.................... 201, 
.................... 201, 
.................... 182, 
.................... 149, 
.................... 110, 
.................... 78, 
.................... 63, 
.................... 64, 
.................... 83, 
.................... 124, 
.................... 166, 
.................... 202, 
.................... 221, 
.................... 217, 
.................... 190, 
.................... 146, 
.................... 99, 
.................... 58, 
.................... 34, 
.................... 29, 
.................... 44, 
.................... 73, 
.................... 109, 
.................... 145, 
.................... 177, 
.................... 197, 
.................... 203, 
.................... 187, 
.................... 157, 
.................... 117, 
.................... 82, 
.................... 63, 
.................... 61, 
.................... 76, 
.................... 114, 
.................... 159, 
.................... 198, 
.................... 220, 
.................... 219, 
.................... 196, 
.................... 154, 
.................... 107, 
.................... 64, 
.................... 38, 
.................... 29, 
.................... 39, 
.................... 67, 
.................... 104, 
.................... 139, 
.................... 172, 
.................... 196, 
.................... 203, 
.................... 192, 
.................... 163, 
.................... 125, 
.................... 89, 
.................... 66, 
.................... 61, 
.................... 71, 
.................... 104, 
.................... 148, 
.................... 189, 
.................... 217, 
.................... 220, 
.................... 203, 
.................... 166, 
.................... 118, 
.................... 72, 
.................... 42, 
.................... 29, 
.................... 35, 
.................... 60, 
.................... 95, 
.................... 130, 
.................... 166, 
.................... 191, 
.................... 203, 
.................... 195, 
.................... 172, 
.................... 135, 
.................... 98, 
.................... 71, 
.................... 62, 
.................... 68, 
.................... 93, 
.................... 133, 
.................... 174, 
.................... 206, 
.................... 220, 
.................... 211, 
.................... 181, 
.................... 136, 
.................... 89, 
.................... 53, 
.................... 33, 
.................... 33, 
.................... 50, 
.................... 81, 
.................... 119, 
.................... 154, 
.................... 184, 
.................... 200, 
.................... 200, 
.................... 181, 
.................... 148, 
.................... 111, 
.................... 79, 
.................... 62, 
.................... 63, 
.................... 78, 
.................... 112, 
.................... 155, 
.................... 194, 
.................... 219, 
.................... 221, 
.................... 201, 
.................... 162, 
.................... 114, 
.................... 67, 
.................... 39, 
.................... 25, 
.................... 35, 
.................... 63, 
.................... 101, 
.................... 139, 
.................... 171, 
.................... 193, 
.................... 203, 
.................... 194, 
.................... 169, 
.................... 134, 
.................... 97, 
.................... 70, 
.................... 60, 
.................... 64, 
.................... 85, 
.................... 122, 
.................... 165, 
.................... 201, 
.................... 222, 
.................... 219, 
.................... 196, 
.................... 154, 
.................... 106, 
.................... 63, 
.................... 33, 
.................... 24, 
.................... 38, 
.................... 68, 
.................... 110, 
.................... 148, 
.................... 177, 
.................... 195, 
.................... 200, 
.................... 190, 
.................... 164, 
.................... 131, 
.................... 96, 
.................... 69, 
.................... 59, 
.................... 64, 
.................... 86, 
.................... 117, 
.................... 157, 
.................... 194, 
.................... 218, 
.................... 220, 
.................... 202, 
.................... 167, 
.................... 120, 
.................... 73, 
.................... 38, 
.................... 24, 
.................... 29, 
.................... 57, 
.................... 98, 
.................... 139, 
.................... 173, 
.................... 191, 
.................... 198, 
.................... 192, 
.................... 172, 
.................... 143, 
.................... 110, 
.................... 80, 
.................... 64, 
.................... 64, 
.................... 76, 
.................... 103, 
.................... 132, 
.................... 169, 
.................... 200, 
.................... 218, 
.................... 216, 
.................... 192, 
.................... 154, 
.................... 108, 
.................... 64, 
.................... 33, 
.................... 25, 
.................... 37, 
.................... 68, 
.................... 110, 
.................... 149, 
.................... 179, 
.................... 192, 
.................... 192, 
.................... 183, 
.................... 162, 
.................... 137, 
.................... 107, 
.................... 82, 
.................... 68, 
.................... 68, 
.................... 80, 
.................... 106, 
.................... 135, 
.................... 161, 
.................... 192, 
.................... 211, 
.................... 214, 
.................... 195, 
.................... 160, 
.................... 118, 
.................... 74, 
.................... 42, 
.................... 28, 
.................... 34, 
.................... 62, 
.................... 101, 
.................... 140, 
.................... 171, 
.................... 187, 
.................... 187, 
.................... 175, 
.................... 162, 
.................... 144, 
.................... 123, 
.................... 100, 
.................... 84, 
.................... 80, 
.................... 90, 
.................... 109, 
.................... 129, 
.................... 150, 
.................... 164, 
.................... 167, 
.................... 172, 
.................... 167, 
.................... 158, 
.................... 143, 
.................... 125, 
.................... 105, 
.................... 87, 
.................... 75, 
.................... 73, 
.................... 81, 
.................... 98, 
.................... 117, 
.................... 134, 
.................... 146, 
.................... 153, 
.................... 154, 
.................... 153, 
.................... 147, 
.................... 142, 
.................... 136, 
.................... 127, 
.................... 122, 
.................... 116, 
.................... 114, 
.................... 115, 
.................... 118, 
.................... 124, 
.................... 128, 
.................... 134, 
.................... 136, 
.................... 136, 
.................... 132, 
.................... 133, 
.................... 133, 
.................... 133, 
.................... 134, 
.................... 132, 
.................... 129, 
.................... 124, 
.................... 118, 
.................... 112, 
.................... 109, 
.................... 108, 
.................... 109, 
.................... 113, 
.................... 119, 
.................... 125, 
.................... 132, 
.................... 138, 
.................... 142, 
.................... 145, 
.................... 144, 
.................... 141, 
.................... 137, 
.................... 132, 
.................... 127, 
.................... 124, 
.................... 122, 
.................... 119, 
.................... 117, 
.................... 116, 
.................... 118, 
.................... 121, 
.................... 126, 
.................... 129, 
.................... 134, 
.................... 136, 
.................... 135, 
.................... 137, 
.................... 136, 
.................... 136, 
.................... 136, 
.................... 132, 
.................... 128, 
.................... 122, 
.................... 115, 
.................... 109, 
.................... 107, 
.................... 108, 
.................... 111, 
.................... 117, 
.................... 123, 
.................... 129, 
.................... 134, 
.................... 138, 
.................... 141, 
.................... 141, 
.................... 139, 
.................... 136, 
.................... 131, 
.................... 128, 
.................... 127, 
.................... 124, 
.................... 124, 
.................... 124, 
.................... 125, 
.................... 125, 
.................... 126, 
.................... 126, 
.................... 127, 
.................... 127, 
.................... 127, 
.................... 127, 
.................... 127, 
.................... 127, 
.................... 127, 
.................... 128, 
.................... 128, 
.................... 129, 
.................... 130, 
.................... 130, 
.................... 130, 
.................... 130, 
.................... 128, 
.................... 127, 
.................... 123, 
.................... 120, 
.................... 117, 
.................... 117, 
.................... 118, 
.................... 119, 
.................... 123, 
.................... 126, 
.................... 128, 
.................... 131, 
.................... 134, 
.................... 135, 
.................... 135, 
.................... 135, 
.................... 134, 
.................... 133, 
.................... 130, 
.................... 127, 
.................... 127, 
.................... 125, 
.................... 124, 
.................... 124, 
.................... 125, 
.................... 127, 
.................... 127, 
.................... 127, 
.................... 127, 
.................... 125, 
.................... 124, 
.................... 122, 
.................... 124, 
.................... 124, 
.................... 124, 
.................... 127, 
.................... 128, 
.................... 131, 
.................... 131, 
.................... 132, 
.................... 131, 
.................... 131, 
.................... 129, 
.................... 128, 
.................... 126, 
.................... 126, 
.................... 125, 
.................... 126, 
.................... 126, 
.................... 128, 
.................... 127, 
.................... 123, 
.................... 124, 
.................... 123, 
.................... 124, 
.................... 125, 
.................... 127, 
.................... 127, 
.................... 129, 
.................... 128, 
.................... 130, 
.................... 129, 
.................... 130, 
.................... 130, 
.................... 131, 
.................... 134, 
.................... 129, 
.................... 128, 
.................... 121, 
.................... 120, 
.................... 117, 
.................... 122, 
.................... 124, 
.................... 127, 
.................... 131, 
.................... 133, 
.................... 139, 
.................... 131, 
.................... 127, 
.................... 114, 
.................... 124, 
.................... 118, 
.................... 124, 
.................... 115, 
.................... 124, 
.................... 124, 
.................... 132, 
.................... 133, 
.................... 137, 
.................... 135, 
.................... 134, 
.................... 137, 
.................... 133, 
.................... 130, 
.................... 126, 
.................... 123, 
.................... 122, 
.................... 122, 
.................... 135, 
.................... 140, 
.................... 140, 
.................... 126, 
.................... 112, 
.................... 98, 
.................... 96, 
.................... 106, 
.................... 119, 
.................... 133, 
.................... 140, 
.................... 140, 
.................... 132, 
.................... 127, 
.................... 122, 
.................... 129, 
.................... 136, 
.................... 147, 
.................... 148, 
.................... 148, 
.................... 132, 
.................... 118, 
.................... 105, 
.................... 105, 
.................... 111, 
.................... 122, 
.................... 129, 
.................... 129, 
.................... 127, 
.................... 132, 
.................... 137, 
.................... 144, 
.................... 142, 
.................... 137, 
.................... 130, 
.................... 123, 
.................... 119, 
.................... 145, 
.................... 157, 
.................... 148, 
.................... 118, 
.................... 81, 
.................... 67, 
.................... 71, 
.................... 106, 
.................... 132, 
.................... 155, 
.................... 149, 
.................... 134, 
.................... 117, 
.................... 110, 
.................... 121, 
.................... 138, 
.................... 155, 
.................... 155, 
.................... 144, 
.................... 126, 
.................... 115, 
.................... 117, 
.................... 133, 
.................... 154, 
.................... 146, 
.................... 124, 
.................... 98, 
.................... 95, 
.................... 109, 
.................... 126, 
.................... 133, 
.................... 135, 
.................... 136, 
.................... 134, 
.................... 131, 
.................... 137, 
.................... 145, 
.................... 143, 
.................... 136, 
.................... 126, 
.................... 111, 
.................... 115, 
.................... 145, 
.................... 131, 
.................... 126, 
.................... 95, 
.................... 76, 
.................... 94, 
.................... 104, 
.................... 139, 
.................... 145, 
.................... 141, 
.................... 136, 
.................... 117, 
.................... 124, 
.................... 127, 
.................... 139, 
.................... 152, 
.................... 142, 
.................... 136, 
.................... 122, 
.................... 123, 
.................... 132, 
.................... 136, 
.................... 141, 
.................... 133, 
.................... 128, 
.................... 145, 
.................... 116, 
.................... 107, 
.................... 104, 
.................... 102, 
.................... 127, 
.................... 121, 
.................... 127, 
.................... 127, 
.................... 126, 
.................... 141, 
.................... 145, 
.................... 147, 
.................... 143, 
.................... 129, 
.................... 122, 
.................... 118, 
.................... 116, 
.................... 115, 
.................... 114, 
.................... 131, 
.................... 162, 
.................... 135, 
.................... 113, 
.................... 92, 
.................... 81, 
.................... 117, 
.................... 136, 
.................... 144, 
.................... 147, 
.................... 119, 
.................... 110, 
.................... 119, 
.................... 130, 
.................... 153, 
.................... 153, 
.................... 139, 
.................... 132, 
.................... 120, 
.................... 124, 
.................... 132, 
.................... 136, 
.................... 137, 
.................... 127, 
.................... 116, 
.................... 119, 
.................... 123, 
.................... 148, 
.................... 143, 
.................... 108, 
.................... 109, 
.................... 105, 
.................... 115, 
.................... 133, 
.................... 127, 
.................... 124, 
.................... 133, 
.................... 133, 
.................... 140, 
.................... 139, 
.................... 130, 
.................... 134, 
.................... 132, 
.................... 124, 
.................... 121, 
.................... 120, 
.................... 120, 
.................... 121, 
.................... 119, 
.................... 119, 
.................... 124, 
.................... 156, 
.................... 154, 
.................... 121, 
.................... 106, 
.................... 93, 
.................... 102, 
.................... 137, 
.................... 143, 
.................... 134, 
.................... 129, 
.................... 113, 
.................... 115, 
.................... 136, 
.................... 142, 
.................... 146, 
.................... 144, 
.................... 126, 
.................... 119, 
.................... 123, 
.................... 127, 
.................... 136, 
.................... 138, 
.................... 127, 
.................... 120, 
.................... 119, 
.................... 121, 
.................... 133, 
.................... 154, 
.................... 132, 
.................... 102, 
.................... 106, 
.................... 110, 
.................... 124, 
.................... 136, 
.................... 124, 
.................... 119, 
.................... 128, 
.................... 130, 
.................... 141, 
.................... 148, 
.................... 135, 
.................... 131, 
.................... 130, 
.................... 120, 
.................... 122, 
.................... 126, 
.................... 120, 
.................... 125, 
.................... 126, 
.................... 116, 
.................... 119, 
.................... 125, 
.................... 127, 
.................... 152, 
.................... 160, 
.................... 123, 
.................... 104, 
.................... 103, 
.................... 97, 
.................... 120, 
.................... 146, 
.................... 138, 
.................... 130, 
.................... 127, 
.................... 115, 
.................... 123, 
.................... 145, 
.................... 145, 
.................... 138, 
.................... 134, 
.................... 121, 
.................... 116, 
.................... 127, 
.................... 133, 
.................... 131, 
.................... 131, 
.................... 125, 
.................... 116, 
.................... 126, 
.................... 143, 
.................... 129, 
.................... 110, 
.................... 112, 
.................... 114, 
.................... 122, 
.................... 133, 
.................... 127, 
.................... 119, 
.................... 128, 
.................... 136, 
.................... 138, 
.................... 142, 
.................... 136, 
.................... 127, 
.................... 130, 
.................... 127, 
.................... 120, 
.................... 120, 
.................... 125, 
.................... 125, 
.................... 124, 
.................... 122, 
.................... 116, 
.................... 118, 
.................... 126, 
.................... 135, 
.................... 153, 
.................... 150, 
.................... 122, 
.................... 103, 
.................... 102, 
.................... 104, 
.................... 125, 
.................... 147, 
.................... 143, 
.................... 130, 
.................... 126, 
.................... 121, 
.................... 123, 
.................... 137, 
.................... 143, 
.................... 138, 
.................... 132, 
.................... 126, 
.................... 117, 
.................... 121, 
.................... 129, 
.................... 131, 
.................... 130, 
.................... 129, 
.................... 124, 
.................... 134, 
.................... 134, 
.................... 110, 
.................... 104, 
.................... 120, 
.................... 122, 
.................... 125, 
.................... 132, 
.................... 127, 
.................... 128, 
.................... 139, 
.................... 138, 
.................... 134, 
.................... 137, 
.................... 133, 
.................... 125, 
.................... 127, 
.................... 126, 
.................... 121, 
.................... 125, 
.................... 123, 
.................... 120, 
.................... 124, 
.................... 124, 
.................... 120, 
.................... 125, 
.................... 128, 
.................... 135, 
.................... 144, 
.................... 132, 
.................... 114, 
.................... 112, 
.................... 117, 
.................... 120, 
.................... 128, 
.................... 131, 
.................... 124, 
.................... 124, 
.................... 132, 
.................... 137, 
.................... 139, 
.................... 138, 
.................... 132, 
.................... 127, 
.................... 127, 
.................... 127, 
.................... 126, 
.................... 126, 
.................... 126, 
.................... 124, 
.................... 128, 
.................... 128, 
.................... 125, 
.................... 127, 
.................... 126, 
.................... 127, 
.................... 127, 
.................... 127, 
.................... 128, 
.................... 127, 
.................... 126, 
.................... 127, 
.................... 127, 
.................... 126, 
.................... 128, 
.................... 127, 
.................... 127, 
.................... 128, 
.................... 127, 
.................... 127, 
.................... 127, 
.................... 128, 
.................... 127, 
.................... 125, 
.................... 127, 
.................... 127, 
.................... 126, 
.................... 127, 
.................... 127, 
.................... 127, 
.................... 127, 
.................... 127, 
.................... 127, 
.................... 128, 
.................... 129, 
.................... 126, 
.................... 127, 
.................... 127, 
.................... 128, 
.................... 126, 
.................... 127, 
.................... 126, 
.................... 128, 
.................... 127, 
.................... 127, 
.................... 127, 
.................... 127, 
.................... 127, 
.................... 126, 
.................... 127, 
.................... 126, 
.................... 128, 
.................... 124, 
.................... 127, 
.................... 127, 
.................... 127, 
.................... 127, 
.................... 128, 
.................... 128, 
.................... 128, 
.................... 127, 
.................... 129, 
.................... 126, 
.................... 127, 
.................... 126, 
.................... 126, 
.................... 127, 
.................... 127, 
.................... 126, 
.................... 127, 
.................... 127, 
.................... 127, 
.................... 127, 
.................... 127, 
.................... 127, 
.................... 127, 
.................... 128, 
.................... 128, 
.................... 127, 
.................... 127, 
.................... 127, 
.................... 127, 
.................... 128, 
.................... 126, 
.................... 127, 
.................... 130, 
.................... 127, 
.................... 127, 
.................... 127, 
.................... 126, 
.................... 128, 
.................... 126, 
.................... 126, 
.................... 127, 
.................... 127, 
.................... 127, 
.................... 127, 
.................... 126, 
.................... 128, 
.................... 127, 
.................... 128, 
.................... 129, 
.................... 126, 
.................... 127, 
.................... 127, 
.................... 127, 
.................... 127, 
.................... 128, 
.................... 128, 
.................... 127, 
.................... 127, 
.................... 125, 
.................... 127, 
.................... 126, 
.................... 127, 
.................... 128, 
.................... 127, 
.................... 127, 
.................... 127, 
.................... 128, 
.................... 127, 
.................... 127, 
.................... 128, 
.................... 127, 
.................... 127, 
.................... 126, 
.................... 126, 
.................... 127, 
.................... 128, 
.................... 127, 
.................... 126, 
.................... 128, 
.................... 127, 
.................... 127, 
.................... 127, 
.................... 127, 
.................... 126, 
.................... 128, 
.................... 127, 
.................... 127, 
.................... 127, 
.................... 123, 
.................... 126, 
.................... 129, 
.................... 128, 
.................... 130, 
.................... 128, 
.................... 125, 
.................... 126, 
.................... 126, 
.................... 129, 
.................... 129, 
.................... 128, 
.................... 127, 
.................... 126, 
.................... 125, 
.................... 127, 
.................... 126, 
.................... 128, 
.................... 127, 
.................... 126, 
.................... 128, 
.................... 127, 
.................... 127, 
.................... 128, 
.................... 127, 
.................... 127, 
.................... 127, 
.................... 128, 
.................... 127, 
.................... 127, 
.................... 126, 
.................... 126, 
.................... 127, 
.................... 127, 
.................... 127, 
.................... 126, 
.................... 128, 
.................... 127, 
.................... 128, 
.................... 127, 
.................... 128, 
.................... 127, 
.................... 126, 
.................... 127, 
.................... 127, 
.................... 127, 
.................... 127, 
.................... 127, 
.................... 128, 
.................... 124, 
.................... 127, 
.................... 129, 
.................... 127, 
.................... 126, 
.................... 128, 
.................... 128, 
.................... 128, 
.................... 127, 
.................... 127, 
.................... 126, 
.................... 126, 
.................... 126, 
.................... 126, 
.................... 128, 
.................... 127, 
.................... 127, 
.................... 128, 
.................... 127, 
.................... 127, 
.................... 124, 
.................... 127, 
.................... 126, 
.................... 127, 
.................... 128, 
.................... 128, 
.................... 128, 
.................... 127, 
.................... 127, 
.................... 129, 
.................... 127, 
.................... 127, 
.................... 126, 
.................... 126, 
.................... 126, 
.................... 129, 
.................... 129, 
.................... 127, 
.................... 128, 
.................... 127, 
.................... 128, 
.................... 127, 
.................... 126, 
.................... 125, 
.................... 124, 
.................... 126, 
.................... 127, 
.................... 128, 
.................... 127, 
.................... 127, 
.................... 127, 
.................... 129, 
.................... 129, 
.................... 128, 
.................... 128, 
.................... 127, 
.................... 127, 
.................... 128, 
.................... 127, 
.................... 126, 
.................... 126, 
.................... 124, 
.................... 123, 
.................... 125, 
.................... 127, 
.................... 129, 
.................... 130, 
.................... 130, 
.................... 128, 
.................... 126, 
.................... 123, 
.................... 124, 
.................... 124, 
.................... 125, 
.................... 129, 
.................... 128, 
.................... 129, 
.................... 128, 
.................... 130, 
.................... 131, 
.................... 131, 
.................... 131, 
.................... 129, 
.................... 127, 
.................... 127, 
.................... 125, 
.................... 122, 
.................... 116, 
.................... 115, 
.................... 114, 
.................... 116, 
.................... 119, 
.................... 124, 
.................... 128, 
.................... 135, 
.................... 138, 
.................... 143, 
.................... 145, 
.................... 147, 
.................... 152, 
.................... 150, 
.................... 146, 
.................... 134, 
.................... 119, 
.................... 101, 
.................... 88, 
.................... 84, 
.................... 87, 
.................... 101, 
.................... 121, 
.................... 140, 
.................... 152, 
.................... 153, 
.................... 140, 
.................... 127, 
.................... 115, 
.................... 110, 
.................... 109, 
.................... 123, 
.................... 131, 
.................... 141, 
.................... 159, 
.................... 172, 
.................... 180, 
.................... 176, 
.................... 161, 
.................... 133, 
.................... 103, 
.................... 77, 
.................... 63, 
.................... 62, 
.................... 74, 
.................... 93, 
.................... 122, 
.................... 146, 
.................... 166, 
.................... 170, 
.................... 159, 
.................... 138, 
.................... 115, 
.................... 101, 
.................... 98, 
.................... 103, 
.................... 117, 
.................... 129, 
.................... 153, 
.................... 174, 
.................... 189, 
.................... 189, 
.................... 172, 
.................... 145, 
.................... 113, 
.................... 84, 
.................... 63, 
.................... 54, 
.................... 61, 
.................... 81, 
.................... 110, 
.................... 144, 
.................... 170, 
.................... 182, 
.................... 171, 
.................... 148, 
.................... 121, 
.................... 98, 
.................... 88, 
.................... 93, 
.................... 105, 
.................... 125, 
.................... 155, 
.................... 180, 
.................... 194, 
.................... 194, 
.................... 179, 
.................... 148, 
.................... 112, 
.................... 78, 
.................... 56, 
.................... 48, 
.................... 58, 
.................... 81, 
.................... 113, 
.................... 146, 
.................... 174, 
.................... 187, 
.................... 177, 
.................... 152, 
.................... 121, 
.................... 95, 
.................... 82, 
.................... 84, 
.................... 97, 
.................... 117, 
.................... 153, 
.................... 180, 
.................... 197, 
.................... 194, 
.................... 180, 
.................... 150, 
.................... 117, 
.................... 83, 
.................... 62, 
.................... 53, 
.................... 60, 
.................... 81, 
.................... 112, 
.................... 143, 
.................... 172, 
.................... 185, 
.................... 177, 
.................... 155, 
.................... 125, 
.................... 100, 
.................... 84, 
.................... 83, 
.................... 93, 
.................... 114, 
.................... 146, 
.................... 175, 
.................... 195, 
.................... 198, 
.................... 185, 
.................... 154, 
.................... 118, 
.................... 84, 
.................... 60, 
.................... 53, 
.................... 62, 
.................... 82, 
.................... 111, 
.................... 142, 
.................... 170, 
.................... 185, 
.................... 178, 
.................... 158, 
.................... 128, 
.................... 102, 
.................... 84, 
.................... 80, 
.................... 89, 
.................... 110, 
.................... 140, 
.................... 171, 
.................... 195, 
.................... 200, 
.................... 188, 
.................... 159, 
.................... 124, 
.................... 87, 
.................... 62, 
.................... 51, 
.................... 56, 
.................... 76, 
.................... 103, 
.................... 134, 
.................... 168, 
.................... 188, 
.................... 186, 
.................... 167, 
.................... 136, 
.................... 107, 
.................... 85, 
.................... 78, 
.................... 84, 
.................... 98, 
.................... 132, 
.................... 165, 
.................... 191, 
.................... 202, 
.................... 195, 
.................... 171, 
.................... 135, 
.................... 99, 
.................... 66, 
.................... 52, 
.................... 50, 
.................... 66, 
.................... 92, 
.................... 125, 
.................... 156, 
.................... 180, 
.................... 189, 
.................... 176, 
.................... 149, 
.................... 117, 
.................... 91, 
.................... 79, 
.................... 83, 
.................... 95, 
.................... 119, 
.................... 153, 
.................... 180, 
.................... 199, 
.................... 200, 
.................... 185, 
.................... 155, 
.................... 118, 
.................... 81, 
.................... 57, 
.................... 46, 
.................... 52, 
.................... 74, 
.................... 106, 
.................... 140, 
.................... 169, 
.................... 187, 
.................... 187, 
.................... 168, 
.................... 138, 
.................... 107, 
.................... 87, 
.................... 79, 
.................... 84, 
.................... 101, 
.................... 127, 
.................... 158, 
.................... 184, 
.................... 200, 
.................... 197, 
.................... 180, 
.................... 149, 
.................... 112, 
.................... 77, 
.................... 52, 
.................... 41, 
.................... 49, 
.................... 75, 
.................... 111, 
.................... 146, 
.................... 175, 
.................... 192, 
.................... 193, 
.................... 171, 
.................... 138, 
.................... 104, 
.................... 80, 
.................... 74, 
.................... 84, 
.................... 103, 
.................... 125, 
.................... 154, 
.................... 180, 
.................... 197, 
.................... 200, 
.................... 186, 
.................... 159, 
.................... 123, 
.................... 85, 
.................... 58, 
.................... 43, 
.................... 47, 
.................... 67, 
.................... 100, 
.................... 133, 
.................... 162, 
.................... 183, 
.................... 191, 
.................... 181, 
.................... 157, 
.................... 125, 
.................... 94, 
.................... 82, 
.................... 82, 
.................... 92, 
.................... 111, 
.................... 127, 
.................... 151, 
.................... 172, 
.................... 188, 
.................... 192, 
.................... 182, 
.................... 159, 
.................... 127, 
.................... 91, 
.................... 64, 
.................... 49, 
.................... 51, 
.................... 71, 
.................... 101, 
.................... 134, 
.................... 159, 
.................... 174, 
.................... 179, 
.................... 175, 
.................... 158, 
.................... 133, 
.................... 109, 
.................... 93, 
.................... 88, 
.................... 91, 
.................... 104, 
.................... 122, 
.................... 139, 
.................... 153, 
.................... 168, 
.................... 177, 
.................... 179, 
.................... 171, 
.................... 153, 
.................... 127, 
.................... 98, 
.................... 73, 
.................... 60, 
.................... 62, 
.................... 75, 
.................... 101, 
.................... 128, 
.................... 149, 
.................... 162, 
.................... 164, 
.................... 161, 
.................... 152, 
.................... 140, 
.................... 128, 
.................... 118, 
.................... 109, 
.................... 106, 
.................... 108, 
.................... 116, 
.................... 126, 
.................... 134, 
.................... 142, 
.................... 145, 
.................... 152, 
.................... 154, 
.................... 154, 
.................... 148, 
.................... 136, 
.................... 121, 
.................... 103, 
.................... 89, 
.................... 81, 
.................... 85, 
.................... 99, 
.................... 118, 
.................... 133, 
.................... 141, 
.................... 145, 
.................... 144, 
.................... 140, 
.................... 137, 
.................... 137, 
.................... 134, 
.................... 130, 
.................... 126, 
.................... 122, 
.................... 122, 
.................... 123, 
.................... 123, 
.................... 125, 
.................... 127, 
.................... 129, 
.................... 130, 
.................... 133, 
.................... 138, 
.................... 140, 
.................... 142, 
.................... 140, 
.................... 134, 
.................... 124, 
.................... 112, 
.................... 102, 
.................... 100, 
.................... 105, 
.................... 112, 
.................... 119, 
.................... 126, 
.................... 131, 
.................... 134, 
.................... 138, 
.................... 139, 
.................... 140, 
.................... 140, 
.................... 138, 
.................... 133, 
.................... 128, 
.................... 123, 
.................... 119, 
.................... 116, 
.................... 116, 
.................... 119, 
.................... 123, 
.................... 128, 
.................... 132, 
.................... 136, 
.................... 137, 
.................... 138, 
.................... 135, 
.................... 132, 
.................... 129, 
.................... 127, 
.................... 126, 
.................... 124, 
.................... 122, 
.................... 118, 
.................... 117, 
.................... 117, 
.................... 118, 
.................... 121, 
.................... 123, 
.................... 125, 
.................... 127, 
.................... 128, 
.................... 130, 
.................... 132, 
.................... 132, 
.................... 132, 
.................... 132, 
.................... 131, 
.................... 129, 
.................... 128, 
.................... 128, 
.................... 127, 
.................... 127, 
.................... 127, 
.................... 127, 
.................... 127, 
.................... 127, 
.................... 126, 
.................... 127, 
.................... 127, 
.................... 129, 
.................... 129, 
.................... 127, 
.................... 127, 
.................... 125, 
.................... 123, 
.................... 123, 
.................... 125, 
.................... 126, 
.................... 127, 
.................... 128, 
.................... 128, 
.................... 128, 
.................... 129, 
.................... 128, 
.................... 127, 
.................... 127, 
.................... 125, 
.................... 124, 
.................... 124, 
.................... 123, 
.................... 124, 
.................... 124, 
.................... 126, 
.................... 127, 
.................... 129, 
.................... 130, 
.................... 131, 
.................... 131, 
.................... 132, 
.................... 131, 
.................... 129, 
.................... 128, 
.................... 127, 
.................... 126, 
.................... 125, 
.................... 125, 
.................... 126, 
.................... 126, 
.................... 126, 
.................... 126, 
.................... 127, 
.................... 127, 
.................... 127, 
.................... 127, 
.................... 127, 
.................... 127, 
.................... 127, 
.................... 127, 
.................... 127, 
.................... 127, 
.................... 127, 
.................... 127, 
.................... 126, 
.................... 127, 
.................... 127, 
.................... 127, 
.................... 127, 
.................... 127, 
.................... 127, 
.................... 127, 
.................... 127, 
.................... 127, 
.................... 127, 
.................... 127, 
.................... 127, 
.................... 127, 
.................... 127, 
.................... 127, 
.................... 127, 
.................... 127, 
.................... 127, 
.................... 127, 
.................... 127, 
.................... 127, 
.................... 127, 
.................... 127, 
.................... 126, 
.................... 126, 
.................... 127, 
.................... 127, 
.................... 127, 
.................... 127, 
.................... 127, 
.................... 127, 
.................... 127, 
.................... 127, 
.................... 127, 
.................... 127, 
.................... 127, 
.................... 126, 
.................... 127, 
.................... 127, 
.................... 127, 
.................... 127, 
.................... 127, 
.................... 127, 
.................... 127, 
.................... 127, 
.................... 127, 
.................... 128, 
.................... 127, 
.................... 126, 
.................... 124, 
.................... 125, 
.................... 127, 
.................... 129, 
.................... 129, 
.................... 130, 
.................... 129, 
.................... 128, 
.................... 126, 
.................... 125, 
.................... 127, 
.................... 127, 
.................... 127, 
.................... 127, 
.................... 126, 
.................... 127, 
.................... 126, 
.................... 127, 
.................... 127, 
.................... 128, 
.................... 127, 
.................... 126, 
.................... 125, 
.................... 123, 
.................... 123, 
.................... 126, 
.................... 127, 
.................... 131, 
.................... 132, 
.................... 130, 
.................... 127, 
.................... 127, 
.................... 127, 
.................... 128, 
.................... 130, 
.................... 128, 
.................... 127, 
.................... 126, 
.................... 125, 
.................... 127, 
.................... 135, 
.................... 140, 
.................... 136, 
.................... 122, 
.................... 107, 
.................... 100, 
.................... 101, 
.................... 115, 
.................... 130, 
.................... 145, 
.................... 144, 
.................... 136, 
.................... 128, 
.................... 126, 
.................... 128, 
.................... 132, 
.................... 128, 
.................... 127, 
.................... 124, 
.................... 121, 
.................... 119, 
.................... 124, 
.................... 130, 
.................... 137, 
.................... 137, 
.................... 137, 
.................... 134, 
.................... 132, 
.................... 129, 
.................... 132, 
.................... 130, 
.................... 152, 
.................... 162, 
.................... 140, 
.................... 98, 
.................... 66, 
.................... 65, 
.................... 93, 
.................... 129, 
.................... 145, 
.................... 135, 
.................... 116, 
.................... 108, 
.................... 118, 
.................... 139, 
.................... 157, 
.................... 154, 
.................... 134, 
.................... 122, 
.................... 124, 
.................... 148, 
.................... 168, 
.................... 142, 
.................... 106, 
.................... 89, 
.................... 111, 
.................... 131, 
.................... 132, 
.................... 119, 
.................... 122, 
.................... 133, 
.................... 142, 
.................... 141, 
.................... 134, 
.................... 128, 
.................... 130, 
.................... 139, 
.................... 127, 
.................... 166, 
.................... 163, 
.................... 122, 
.................... 68, 
.................... 54, 
.................... 90, 
.................... 132, 
.................... 142, 
.................... 114, 
.................... 94, 
.................... 109, 
.................... 143, 
.................... 163, 
.................... 144, 
.................... 123, 
.................... 115, 
.................... 133, 
.................... 156, 
.................... 153, 
.................... 130, 
.................... 115, 
.................... 125, 
.................... 141, 
.................... 162, 
.................... 134, 
.................... 98, 
.................... 96, 
.................... 124, 
.................... 138, 
.................... 120, 
.................... 107, 
.................... 119, 
.................... 132, 
.................... 137, 
.................... 137, 
.................... 143, 
.................... 151, 
.................... 141, 
.................... 118, 
.................... 120, 
.................... 130, 
.................... 111, 
.................... 135, 
.................... 154, 
.................... 115, 
.................... 83, 
.................... 91, 
.................... 130, 
.................... 137, 
.................... 121, 
.................... 98, 
.................... 115, 
.................... 145, 
.................... 154, 
.................... 125, 
.................... 108, 
.................... 124, 
.................... 151, 
.................... 151, 
.................... 131, 
.................... 123, 
.................... 134, 
.................... 144, 
.................... 132, 
.................... 118, 
.................... 127, 
.................... 131, 
.................... 141, 
.................... 141, 
.................... 103, 
.................... 99, 
.................... 122, 
.................... 135, 
.................... 116, 
.................... 101, 
.................... 118, 
.................... 137, 
.................... 144, 
.................... 136, 
.................... 137, 
.................... 145, 
.................... 136, 
.................... 123, 
.................... 129, 
.................... 128, 
.................... 122, 
.................... 111, 
.................... 114, 
.................... 158, 
.................... 147, 
.................... 96, 
.................... 83, 
.................... 118, 
.................... 144, 
.................... 125, 
.................... 101, 
.................... 114, 
.................... 147, 
.................... 144, 
.................... 119, 
.................... 116, 
.................... 140, 
.................... 149, 
.................... 131, 
.................... 117, 
.................... 133, 
.................... 147, 
.................... 135, 
.................... 115, 
.................... 122, 
.................... 138, 
.................... 134, 
.................... 119, 
.................... 117, 
.................... 155, 
.................... 138, 
.................... 90, 
.................... 104, 
.................... 142, 
.................... 130, 
.................... 94, 
.................... 116, 
.................... 142, 
.................... 138, 
.................... 121, 
.................... 139, 
.................... 153, 
.................... 138, 
.................... 118, 
.................... 132, 
.................... 131, 
.................... 119, 
.................... 112, 
.................... 122, 
.................... 115, 
.................... 141, 
.................... 153, 
.................... 107, 
.................... 99, 
.................... 127, 
.................... 141, 
.................... 113, 
.................... 103, 
.................... 126, 
.................... 144, 
.................... 125, 
.................... 112, 
.................... 129, 
.................... 147, 
.................... 135, 
.................... 125, 
.................... 135, 
.................... 141, 
.................... 132, 
.................... 123, 
.................... 128, 
.................... 132, 
.................... 127, 
.................... 118, 
.................... 129, 
.................... 131, 
.................... 136, 
.................... 140, 
.................... 104, 
.................... 111, 
.................... 132, 
.................... 127, 
.................... 102, 
.................... 118, 
.................... 137, 
.................... 127, 
.................... 126, 
.................... 138, 
.................... 147, 
.................... 133, 
.................... 131, 
.................... 136, 
.................... 130, 
.................... 125, 
.................... 119, 
.................... 117, 
.................... 121, 
.................... 120, 
.................... 133, 
.................... 145, 
.................... 120, 
.................... 115, 
.................... 124, 
.................... 131, 
.................... 117, 
.................... 113, 
.................... 126, 
.................... 130, 
.................... 121, 
.................... 124, 
.................... 136, 
.................... 139, 
.................... 129, 
.................... 128, 
.................... 135, 
.................... 136, 
.................... 127, 
.................... 125, 
.................... 128, 
.................... 131, 
.................... 126, 
.................... 127, 
.................... 130, 
.................... 130, 
.................... 124, 
.................... 158, 
.................... 105, 
.................... 98, 
.................... 131, 
.................... 135, 
.................... 101, 
.................... 109, 
.................... 141, 
.................... 131, 
.................... 117, 
.................... 137, 
.................... 152, 
.................... 132, 
.................... 127, 
.................... 138, 
.................... 134, 
.................... 119, 
.................... 121, 
.................... 127, 
.................... 120, 
.................... 118, 
.................... 123, 
.................... 124, 
.................... 131, 
.................... 139, 
.................... 123, 
.................... 115, 
.................... 127, 
.................... 130, 
.................... 117, 
.................... 113, 
.................... 126, 
.................... 128, 
.................... 125, 
.................... 129, 
.................... 136, 
.................... 135, 
.................... 133, 
.................... 131, 
.................... 132, 
.................... 131, 
.................... 129, 
.................... 125, 
.................... 130, 
.................... 129, 
.................... 129, 
.................... 125, 
.................... 129, 
.................... 125, 
.................... 150, 
.................... 119, 
.................... 99, 
.................... 125, 
.................... 133, 
.................... 109, 
.................... 108, 
.................... 132, 
.................... 130, 
.................... 121, 
.................... 134, 
.................... 145, 
.................... 136, 
.................... 130, 
.................... 132, 
.................... 135, 
.................... 133, 
.................... 123, 
.................... 117, 
.................... 127, 
.................... 132, 
.................... 117, 
.................... 117, 
.................... 127, 
.................... 122, 
.................... 118, 
.................... 132, 
.................... 132, 
.................... 119, 
.................... 123, 
.................... 129, 
.................... 123, 
.................... 116, 
.................... 122, 
.................... 129, 
.................... 129, 
.................... 129, 
.................... 134, 
.................... 139, 
.................... 135, 
.................... 132, 
.................... 131, 
.................... 130, 
.................... 127, 
.................... 126, 
.................... 127, 
.................... 128, 
.................... 127, 
.................... 127, 
.................... 142, 
.................... 126, 
.................... 114, 
.................... 119, 
.................... 124, 
.................... 116, 
.................... 112, 
.................... 126, 
.................... 128, 
.................... 125, 
.................... 129, 
.................... 140, 
.................... 141, 
.................... 128, 
.................... 127, 
.................... 132, 
.................... 135, 
.................... 127, 
.................... 126, 
.................... 125, 
.................... 132, 
.................... 127, 
.................... 117, 
.................... 121, 
.................... 125, 
.................... 120, 
.................... 114, 
.................... 124, 
.................... 129, 
.................... 132, 
.................... 127, 
.................... 126, 
.................... 127, 
.................... 127, 
.................... 123, 
.................... 121, 
.................... 127, 
.................... 128, 
.................... 129, 
.................... 133, 
.................... 135, 
.................... 135, 
.................... 131, 
.................... 130, 
.................... 129, 
.................... 127, 
.................... 128, 
.................... 127, 
.................... 131, 
.................... 135, 
.................... 128, 
.................... 123, 
.................... 122, 
.................... 121, 
.................... 118, 
.................... 116, 
.................... 120, 
.................... 123, 
.................... 127, 
.................... 130, 
.................... 132, 
.................... 135, 
.................... 133, 
.................... 134, 
.................... 129, 
.................... 129, 
.................... 133, 
.................... 127, 
.................... 127, 
.................... 125, 
.................... 130, 
.................... 127, 
.................... 118, 
.................... 121, 
.................... 127, 
.................... 119, 
.................... 117, 
.................... 124, 
.................... 127, 
.................... 121, 
.................... 123, 
.................... 133, 
.................... 134, 
.................... 125, 
.................... 128, 
.................... 128, 
.................... 127, 
.................... 126, 
.................... 126, 
.................... 129, 
.................... 130, 
.................... 129, 
.................... 132, 
.................... 134, 
.................... 133, 
.................... 130, 
.................... 129, 
.................... 128, 
.................... 126, 
.................... 126, 
.................... 124, 
.................... 125, 
.................... 122, 
.................... 123, 
.................... 125, 
.................... 125, 
.................... 124, 
.................... 125, 
.................... 129, 
.................... 127, 
.................... 131, 
.................... 130, 
.................... 134, 
.................... 131, 
.................... 130, 
.................... 129, 
.................... 127, 
.................... 127, 
.................... 121, 
.................... 121, 
.................... 125, 
.................... 124, 
.................... 122, 
.................... 124, 
.................... 126, 
.................... 130, 
.................... 126, 
.................... 124, 
.................... 125, 
.................... 128, 
.................... 125, 
.................... 123, 
.................... 126, 
.................... 130, 
.................... 127, 
.................... 131, 
.................... 133, 
.................... 129, 
.................... 129, 
.................... 132, 
.................... 130, 
.................... 125, 
.................... 126, 
.................... 129, 
.................... 127, 
.................... 126, 
.................... 127, 
.................... 128, 
.................... 125, 
.................... 126, 
.................... 127, 
.................... }; 
.................... int voz1[1500]={}; 
.................... char a,eprom[]; 
....................  
.................... #INT_rda 
.................... void rda_isr(){ 
....................    a = fgetc () ; 
*
0E90:  BTFSS  F9E.5
0E92:  BRA    0E90
0E94:  MOVFF  FAE,600
0E98:  MOVLB  6
....................    output_high(pin_a5); 
0E9A:  BCF    F92.5
0E9C:  BSF    F89.5
....................    IF (a == '@') 
0E9E:  MOVF   x00,W
0EA0:  SUBLW  40
0EA2:  BNZ   0ED0
....................    { 
....................      eprom[0] = a; 
0EA4:  MOVFF  600,601
....................     
....................       FOR (d = 1; d <= 100; d++) 
0EA8:  CLRF   1F
0EAA:  MOVLW  01
0EAC:  MOVWF  1E
0EAE:  MOVF   1F,F
0EB0:  BNZ   0ED0
0EB2:  MOVF   1E,W
0EB4:  SUBLW  64
0EB6:  BNC   0ED0
....................       { 
....................          a = fgetc () ; 
0EB8:  BTFSS  F9E.5
0EBA:  BRA    0EB8
0EBC:  MOVFF  FAE,600
....................           
....................            
....................         IF (a == '#') 
0EC0:  MOVF   x00,W
0EC2:  SUBLW  23
0EC4:  BNZ   0EC8
....................          { 
....................          break; 
0EC6:  BRA    0ED0
....................          } 
....................        } 
0EC8:  INCF   1E,F
0ECA:  BTFSC  FD8.2
0ECC:  INCF   1F,F
0ECE:  BRA    0EAE
....................    } 
.................... }  
....................    
0ED0:  BCF    F9E.5
0ED2:  MOVLB  0
0ED4:  GOTO   0054
.................... void main(){ 
*
128A:  CLRF   FF8
128C:  BCF    FD0.7
128E:  BSF    07.7
1290:  CLRF   FEA
1292:  CLRF   FE9
1294:  BSF    FB8.3
1296:  MOVLW  08
1298:  MOVWF  FAF
129A:  MOVLW  02
129C:  MOVWF  FB0
129E:  MOVLW  A6
12A0:  MOVWF  FAC
12A2:  MOVLW  90
12A4:  MOVWF  FAB
12A6:  CLRF   16
12A8:  CLRF   17
12AA:  CLRF   18
12AC:  CLRF   19
12AE:  CLRF   1A
12B0:  MOVLW  88
12B2:  MOVWF  1B
12B4:  MOVLW  0D
12B6:  MOVWF  1D
12B8:  MOVLW  C2
12BA:  MOVWF  1C
12BC:  CLRF   1F
12BE:  MOVLW  18
12C0:  MOVWF  1E
12C2:  CLRF   21
12C4:  MOVWF  20
12C6:  CLRF   23
12C8:  MOVWF  22
12CA:  MOVF   FC1,W
12CC:  ANDLW  C0
12CE:  IORLW  0F
12D0:  MOVWF  FC1
12D2:  MOVLW  07
12D4:  MOVWF  FB4
12D6:  CLRF   24
12D8:  CLRF   25
12DA:  CLRF   26
12DC:  CLRF   27
12DE:  CLRF   28
12E0:  CLRF   29
12E2:  CLRF   2A
12E4:  CLRF   2B
12E6:  CLRF   2C
12E8:  CLRF   2D
12EA:  CLRF   2E
12EC:  CLRF   2F
12EE:  CLRF   30
12F0:  CLRF   31
12F2:  CLRF   32
12F4:  CLRF   33
12F6:  CLRF   34
12F8:  CLRF   35
12FA:  CLRF   36
12FC:  CLRF   37
12FE:  CLRF   38
1300:  CLRF   39
1302:  CLRF   3A
1304:  CLRF   3B
1306:  CLRF   3C
1308:  CLRF   3D
130A:  CLRF   3E
130C:  CLRF   3F
130E:  CLRF   40
1310:  CLRF   41
1312:  CLRF   42
1314:  CLRF   43
1316:  CLRF   44
1318:  CLRF   45
131A:  CLRF   46
131C:  CLRF   47
131E:  CLRF   48
1320:  CLRF   49
1322:  CLRF   4A
1324:  CLRF   4B
1326:  CLRF   4C
1328:  CLRF   4D
132A:  CLRF   4E
132C:  CLRF   4F
132E:  CLRF   50
1330:  CLRF   51
1332:  CLRF   52
1334:  CLRF   53
1336:  CLRF   54
1338:  CLRF   55
133A:  CLRF   56
133C:  CLRF   57
133E:  CLRF   58
1340:  CLRF   59
1342:  CLRF   5A
1344:  CLRF   5B
1346:  CLRF   5C
1348:  CLRF   5D
134A:  CLRF   5E
134C:  CLRF   5F
134E:  CLRF   x60
1350:  CLRF   x61
1352:  CLRF   x62
1354:  CLRF   x63
1356:  CLRF   x64
1358:  CLRF   x65
135A:  CLRF   x66
135C:  CLRF   x67
135E:  CLRF   x68
1360:  CLRF   x69
1362:  CLRF   x6A
1364:  CLRF   x6B
1366:  CLRF   x6C
1368:  CLRF   x6D
136A:  CLRF   x6E
136C:  CLRF   x6F
136E:  CLRF   x70
1370:  CLRF   x71
1372:  CLRF   x72
1374:  CLRF   x73
1376:  CLRF   x74
1378:  CLRF   x75
137A:  CLRF   x76
137C:  CLRF   x77
137E:  CLRF   x78
1380:  CLRF   x79
1382:  CLRF   x7A
1384:  CLRF   x7B
1386:  CLRF   x7C
1388:  CLRF   x7D
138A:  CLRF   x7E
138C:  CLRF   x7F
138E:  CLRF   x80
1390:  CLRF   x81
1392:  CLRF   x82
1394:  CLRF   x83
1396:  CLRF   x84
1398:  CLRF   x85
139A:  CLRF   x86
139C:  CLRF   x87
139E:  CLRF   x88
13A0:  CLRF   x89
13A2:  CLRF   x8A
13A4:  CLRF   x8B
13A6:  CLRF   x8C
13A8:  CLRF   x8D
13AA:  CLRF   x8E
13AC:  CLRF   x8F
13AE:  CLRF   x90
13B0:  CLRF   x91
13B2:  CLRF   x92
13B4:  CLRF   x93
13B6:  CLRF   x94
13B8:  CLRF   x95
13BA:  CLRF   x96
13BC:  CLRF   x97
13BE:  CLRF   x98
13C0:  CLRF   x99
13C2:  CLRF   x9A
13C4:  CLRF   x9B
13C6:  CLRF   x9C
13C8:  CLRF   x9D
13CA:  CLRF   x9E
13CC:  CLRF   x9F
13CE:  CLRF   xA0
13D0:  CLRF   xA1
13D2:  CLRF   xA2
13D4:  CLRF   xA3
13D6:  CLRF   xA4
13D8:  CLRF   xA5
13DA:  CLRF   xA6
13DC:  CLRF   xA7
13DE:  CLRF   xA8
13E0:  CLRF   xA9
13E2:  CLRF   xAA
13E4:  CLRF   xAB
13E6:  CLRF   xAC
13E8:  CLRF   xAD
13EA:  CLRF   xAE
13EC:  CLRF   xAF
13EE:  CLRF   xB0
13F0:  CLRF   xB1
13F2:  CLRF   xB2
13F4:  CLRF   xB3
13F6:  CLRF   xB4
13F8:  CLRF   xB5
13FA:  CLRF   xB6
13FC:  CLRF   xB7
13FE:  CLRF   xB8
1400:  CLRF   xB9
1402:  CLRF   xBA
1404:  CLRF   xBB
1406:  CLRF   xBC
1408:  CLRF   xBD
140A:  CLRF   xBE
140C:  CLRF   xBF
140E:  CLRF   xC0
1410:  CLRF   xC1
1412:  CLRF   xC2
1414:  CLRF   xC3
1416:  CLRF   xC4
1418:  CLRF   xC5
141A:  CLRF   xC6
141C:  CLRF   xC7
141E:  CLRF   xC8
1420:  CLRF   xC9
1422:  CLRF   xCA
1424:  CLRF   xCB
1426:  CLRF   xCC
1428:  CLRF   xCD
142A:  CLRF   xCE
142C:  CLRF   xCF
142E:  CLRF   xD0
1430:  CLRF   xD1
1432:  CLRF   xD2
1434:  CLRF   xD3
1436:  CLRF   xD4
1438:  CLRF   xD5
143A:  CLRF   xD6
143C:  CLRF   xD7
143E:  CLRF   xD8
1440:  CLRF   xD9
1442:  CLRF   xDA
1444:  CLRF   xDB
1446:  CLRF   xDC
1448:  CLRF   xDD
144A:  CLRF   xDE
144C:  CLRF   xDF
144E:  CLRF   xE0
1450:  CLRF   xE1
1452:  CLRF   xE2
1454:  CLRF   xE3
1456:  CLRF   xE4
1458:  CLRF   xE5
145A:  CLRF   xE6
145C:  CLRF   xE7
145E:  CLRF   xE8
1460:  CLRF   xE9
1462:  CLRF   xEA
1464:  CLRF   xEB
1466:  CLRF   xEC
1468:  CLRF   xED
146A:  CLRF   xEE
146C:  CLRF   xEF
146E:  CLRF   xF0
1470:  CLRF   xF1
1472:  CLRF   xF2
1474:  CLRF   xF3
1476:  CLRF   xF4
1478:  CLRF   xF5
147A:  CLRF   xF6
147C:  CLRF   xF7
147E:  CLRF   xF8
1480:  CLRF   xF9
1482:  CLRF   xFA
1484:  CLRF   xFB
1486:  CLRF   xFC
1488:  CLRF   xFD
148A:  CLRF   xFE
148C:  CLRF   xFF
148E:  MOVLB  1
1490:  CLRF   x00
1492:  CLRF   x01
1494:  CLRF   x02
1496:  CLRF   x03
1498:  CLRF   x04
149A:  CLRF   x05
149C:  CLRF   x06
149E:  CLRF   x07
14A0:  CLRF   x08
14A2:  CLRF   x09
14A4:  CLRF   x0A
14A6:  CLRF   x0B
14A8:  CLRF   x0C
14AA:  CLRF   x0D
14AC:  CLRF   x0E
14AE:  CLRF   x0F
14B0:  CLRF   x10
14B2:  CLRF   x11
14B4:  CLRF   x12
14B6:  CLRF   x13
14B8:  CLRF   x14
14BA:  CLRF   x15
14BC:  CLRF   x16
14BE:  CLRF   x17
14C0:  CLRF   x18
14C2:  CLRF   x19
14C4:  CLRF   x1A
14C6:  CLRF   x1B
14C8:  CLRF   x1C
14CA:  CLRF   x1D
14CC:  CLRF   x1E
14CE:  CLRF   x1F
14D0:  CLRF   x20
14D2:  CLRF   x21
14D4:  CLRF   x22
14D6:  CLRF   x23
14D8:  CLRF   x24
14DA:  CLRF   x25
14DC:  CLRF   x26
14DE:  CLRF   x27
14E0:  CLRF   x28
14E2:  CLRF   x29
14E4:  CLRF   x2A
14E6:  CLRF   x2B
14E8:  CLRF   x2C
14EA:  CLRF   x2D
14EC:  CLRF   x2E
14EE:  CLRF   x2F
14F0:  CLRF   x30
14F2:  CLRF   x31
14F4:  CLRF   x32
14F6:  CLRF   x33
14F8:  CLRF   x34
14FA:  CLRF   x35
14FC:  CLRF   x36
14FE:  CLRF   x37
1500:  CLRF   x38
1502:  CLRF   x39
1504:  CLRF   x3A
1506:  CLRF   x3B
1508:  CLRF   x3C
150A:  CLRF   x3D
150C:  CLRF   x3E
150E:  CLRF   x3F
1510:  CLRF   x40
1512:  CLRF   x41
1514:  CLRF   x42
1516:  CLRF   x43
1518:  CLRF   x44
151A:  CLRF   x45
151C:  CLRF   x46
151E:  CLRF   x47
1520:  CLRF   x48
1522:  CLRF   x49
1524:  CLRF   x4A
1526:  CLRF   x4B
1528:  CLRF   x4C
152A:  CLRF   x4D
152C:  CLRF   x4E
152E:  CLRF   x4F
1530:  CLRF   x50
1532:  CLRF   x51
1534:  CLRF   x52
1536:  CLRF   x53
1538:  CLRF   x54
153A:  CLRF   x55
153C:  CLRF   x56
153E:  CLRF   x57
1540:  CLRF   x58
1542:  CLRF   x59
1544:  CLRF   x5A
1546:  CLRF   x5B
1548:  CLRF   x5C
154A:  CLRF   x5D
154C:  CLRF   x5E
154E:  CLRF   x5F
1550:  CLRF   x60
1552:  CLRF   x61
1554:  CLRF   x62
1556:  CLRF   x63
1558:  CLRF   x64
155A:  CLRF   x65
155C:  CLRF   x66
155E:  CLRF   x67
1560:  CLRF   x68
1562:  CLRF   x69
1564:  CLRF   x6A
1566:  CLRF   x6B
1568:  CLRF   x6C
156A:  CLRF   x6D
156C:  CLRF   x6E
156E:  CLRF   x6F
1570:  CLRF   x70
1572:  CLRF   x71
1574:  CLRF   x72
1576:  CLRF   x73
1578:  CLRF   x74
157A:  CLRF   x75
157C:  CLRF   x76
157E:  CLRF   x77
1580:  CLRF   x78
1582:  CLRF   x79
1584:  CLRF   x7A
1586:  CLRF   x7B
1588:  CLRF   x7C
158A:  CLRF   x7D
158C:  CLRF   x7E
158E:  CLRF   x7F
1590:  CLRF   x80
1592:  CLRF   x81
1594:  CLRF   x82
1596:  CLRF   x83
1598:  CLRF   x84
159A:  CLRF   x85
159C:  CLRF   x86
159E:  CLRF   x87
15A0:  CLRF   x88
15A2:  CLRF   x89
15A4:  CLRF   x8A
15A6:  CLRF   x8B
15A8:  CLRF   x8C
15AA:  CLRF   x8D
15AC:  CLRF   x8E
15AE:  CLRF   x8F
15B0:  CLRF   x90
15B2:  CLRF   x91
15B4:  CLRF   x92
15B6:  CLRF   x93
15B8:  CLRF   x94
15BA:  CLRF   x95
15BC:  CLRF   x96
15BE:  CLRF   x97
15C0:  CLRF   x98
15C2:  CLRF   x99
15C4:  CLRF   x9A
15C6:  CLRF   x9B
15C8:  CLRF   x9C
15CA:  CLRF   x9D
15CC:  CLRF   x9E
15CE:  CLRF   x9F
15D0:  CLRF   xA0
15D2:  CLRF   xA1
15D4:  CLRF   xA2
15D6:  CLRF   xA3
15D8:  CLRF   xA4
15DA:  CLRF   xA5
15DC:  CLRF   xA6
15DE:  CLRF   xA7
15E0:  CLRF   xA8
15E2:  CLRF   xA9
15E4:  CLRF   xAA
15E6:  CLRF   xAB
15E8:  CLRF   xAC
15EA:  CLRF   xAD
15EC:  CLRF   xAE
15EE:  CLRF   xAF
15F0:  CLRF   xB0
15F2:  CLRF   xB1
15F4:  CLRF   xB2
15F6:  CLRF   xB3
15F8:  CLRF   xB4
15FA:  CLRF   xB5
15FC:  CLRF   xB6
15FE:  CLRF   xB7
1600:  CLRF   xB8
1602:  CLRF   xB9
1604:  CLRF   xBA
1606:  CLRF   xBB
1608:  CLRF   xBC
160A:  CLRF   xBD
160C:  CLRF   xBE
160E:  CLRF   xBF
1610:  CLRF   xC0
1612:  CLRF   xC1
1614:  CLRF   xC2
1616:  CLRF   xC3
1618:  CLRF   xC4
161A:  CLRF   xC5
161C:  CLRF   xC6
161E:  CLRF   xC7
1620:  CLRF   xC8
1622:  CLRF   xC9
1624:  CLRF   xCA
1626:  CLRF   xCB
1628:  CLRF   xCC
162A:  CLRF   xCD
162C:  CLRF   xCE
162E:  CLRF   xCF
1630:  CLRF   xD0
1632:  CLRF   xD1
1634:  CLRF   xD2
1636:  CLRF   xD3
1638:  CLRF   xD4
163A:  CLRF   xD5
163C:  CLRF   xD6
163E:  CLRF   xD7
1640:  CLRF   xD8
1642:  CLRF   xD9
1644:  CLRF   xDA
1646:  CLRF   xDB
1648:  CLRF   xDC
164A:  CLRF   xDD
164C:  CLRF   xDE
164E:  CLRF   xDF
1650:  CLRF   xE0
1652:  CLRF   xE1
1654:  CLRF   xE2
1656:  CLRF   xE3
1658:  CLRF   xE4
165A:  CLRF   xE5
165C:  CLRF   xE6
165E:  CLRF   xE7
1660:  CLRF   xE8
1662:  CLRF   xE9
1664:  CLRF   xEA
1666:  CLRF   xEB
1668:  CLRF   xEC
166A:  CLRF   xED
166C:  CLRF   xEE
166E:  CLRF   xEF
1670:  CLRF   xF0
1672:  CLRF   xF1
1674:  CLRF   xF2
1676:  CLRF   xF3
1678:  CLRF   xF4
167A:  CLRF   xF5
167C:  CLRF   xF6
167E:  CLRF   xF7
1680:  CLRF   xF8
1682:  CLRF   xF9
1684:  CLRF   xFA
1686:  CLRF   xFB
1688:  CLRF   xFC
168A:  CLRF   xFD
168C:  CLRF   xFE
168E:  CLRF   xFF
1690:  MOVLB  2
1692:  CLRF   x00
1694:  CLRF   x01
1696:  CLRF   x02
1698:  CLRF   x03
169A:  CLRF   x04
169C:  CLRF   x05
169E:  CLRF   x06
16A0:  CLRF   x07
16A2:  CLRF   x08
16A4:  CLRF   x09
16A6:  CLRF   x0A
16A8:  CLRF   x0B
16AA:  CLRF   x0C
16AC:  CLRF   x0D
16AE:  CLRF   x0E
16B0:  CLRF   x0F
16B2:  CLRF   x10
16B4:  CLRF   x11
16B6:  CLRF   x12
16B8:  CLRF   x13
16BA:  CLRF   x14
16BC:  CLRF   x15
16BE:  CLRF   x16
16C0:  CLRF   x17
16C2:  CLRF   x18
16C4:  CLRF   x19
16C6:  CLRF   x1A
16C8:  CLRF   x1B
16CA:  CLRF   x1C
16CC:  CLRF   x1D
16CE:  CLRF   x1E
16D0:  CLRF   x1F
16D2:  CLRF   x20
16D4:  CLRF   x21
16D6:  CLRF   x22
16D8:  CLRF   x23
16DA:  CLRF   x24
16DC:  CLRF   x25
16DE:  CLRF   x26
16E0:  CLRF   x27
16E2:  CLRF   x28
16E4:  CLRF   x29
16E6:  CLRF   x2A
16E8:  CLRF   x2B
16EA:  CLRF   x2C
16EC:  CLRF   x2D
16EE:  CLRF   x2E
16F0:  CLRF   x2F
16F2:  CLRF   x30
16F4:  CLRF   x31
16F6:  CLRF   x32
16F8:  CLRF   x33
16FA:  CLRF   x34
16FC:  CLRF   x35
16FE:  CLRF   x36
1700:  CLRF   x37
1702:  CLRF   x38
1704:  CLRF   x39
1706:  CLRF   x3A
1708:  CLRF   x3B
170A:  CLRF   x3C
170C:  CLRF   x3D
170E:  CLRF   x3E
1710:  CLRF   x3F
1712:  CLRF   x40
1714:  CLRF   x41
1716:  CLRF   x42
1718:  CLRF   x43
171A:  CLRF   x44
171C:  CLRF   x45
171E:  CLRF   x46
1720:  CLRF   x47
1722:  CLRF   x48
1724:  CLRF   x49
1726:  CLRF   x4A
1728:  CLRF   x4B
172A:  CLRF   x4C
172C:  CLRF   x4D
172E:  CLRF   x4E
1730:  CLRF   x4F
1732:  CLRF   x50
1734:  CLRF   x51
1736:  CLRF   x52
1738:  CLRF   x53
173A:  CLRF   x54
173C:  CLRF   x55
173E:  CLRF   x56
1740:  CLRF   x57
1742:  CLRF   x58
1744:  CLRF   x59
1746:  CLRF   x5A
1748:  CLRF   x5B
174A:  CLRF   x5C
174C:  CLRF   x5D
174E:  CLRF   x5E
1750:  CLRF   x5F
1752:  CLRF   x60
1754:  CLRF   x61
1756:  CLRF   x62
1758:  CLRF   x63
175A:  CLRF   x64
175C:  CLRF   x65
175E:  CLRF   x66
1760:  CLRF   x67
1762:  CLRF   x68
1764:  CLRF   x69
1766:  CLRF   x6A
1768:  CLRF   x6B
176A:  CLRF   x6C
176C:  CLRF   x6D
176E:  CLRF   x6E
1770:  CLRF   x6F
1772:  CLRF   x70
1774:  CLRF   x71
1776:  CLRF   x72
1778:  CLRF   x73
177A:  CLRF   x74
177C:  CLRF   x75
177E:  CLRF   x76
1780:  CLRF   x77
1782:  CLRF   x78
1784:  CLRF   x79
1786:  CLRF   x7A
1788:  CLRF   x7B
178A:  CLRF   x7C
178C:  CLRF   x7D
178E:  CLRF   x7E
1790:  CLRF   x7F
1792:  CLRF   x80
1794:  CLRF   x81
1796:  CLRF   x82
1798:  CLRF   x83
179A:  CLRF   x84
179C:  CLRF   x85
179E:  CLRF   x86
17A0:  CLRF   x87
17A2:  CLRF   x88
17A4:  CLRF   x89
17A6:  CLRF   x8A
17A8:  CLRF   x8B
17AA:  CLRF   x8C
17AC:  CLRF   x8D
17AE:  CLRF   x8E
17B0:  CLRF   x8F
17B2:  CLRF   x90
17B4:  CLRF   x91
17B6:  CLRF   x92
17B8:  CLRF   x93
17BA:  CLRF   x94
17BC:  CLRF   x95
17BE:  CLRF   x96
17C0:  CLRF   x97
17C2:  CLRF   x98
17C4:  CLRF   x99
17C6:  CLRF   x9A
17C8:  CLRF   x9B
17CA:  CLRF   x9C
17CC:  CLRF   x9D
17CE:  CLRF   x9E
17D0:  CLRF   x9F
17D2:  CLRF   xA0
17D4:  CLRF   xA1
17D6:  CLRF   xA2
17D8:  CLRF   xA3
17DA:  CLRF   xA4
17DC:  CLRF   xA5
17DE:  CLRF   xA6
17E0:  CLRF   xA7
17E2:  CLRF   xA8
17E4:  CLRF   xA9
17E6:  CLRF   xAA
17E8:  CLRF   xAB
17EA:  CLRF   xAC
17EC:  CLRF   xAD
17EE:  CLRF   xAE
17F0:  CLRF   xAF
17F2:  CLRF   xB0
17F4:  CLRF   xB1
17F6:  CLRF   xB2
17F8:  CLRF   xB3
17FA:  CLRF   xB4
17FC:  CLRF   xB5
17FE:  CLRF   xB6
1800:  CLRF   xB7
1802:  CLRF   xB8
1804:  CLRF   xB9
1806:  CLRF   xBA
1808:  CLRF   xBB
180A:  CLRF   xBC
180C:  CLRF   xBD
180E:  CLRF   xBE
1810:  CLRF   xBF
1812:  CLRF   xC0
1814:  CLRF   xC1
1816:  CLRF   xC2
1818:  CLRF   xC3
181A:  CLRF   xC4
181C:  CLRF   xC5
181E:  CLRF   xC6
1820:  CLRF   xC7
1822:  CLRF   xC8
1824:  CLRF   xC9
1826:  CLRF   xCA
1828:  CLRF   xCB
182A:  CLRF   xCC
182C:  CLRF   xCD
182E:  CLRF   xCE
1830:  CLRF   xCF
1832:  CLRF   xD0
1834:  CLRF   xD1
1836:  CLRF   xD2
1838:  CLRF   xD3
183A:  CLRF   xD4
183C:  CLRF   xD5
183E:  CLRF   xD6
1840:  CLRF   xD7
1842:  CLRF   xD8
1844:  CLRF   xD9
1846:  CLRF   xDA
1848:  CLRF   xDB
184A:  CLRF   xDC
184C:  CLRF   xDD
184E:  CLRF   xDE
1850:  CLRF   xDF
1852:  CLRF   xE0
1854:  CLRF   xE1
1856:  CLRF   xE2
1858:  CLRF   xE3
185A:  CLRF   xE4
185C:  CLRF   xE5
185E:  CLRF   xE6
1860:  CLRF   xE7
1862:  CLRF   xE8
1864:  CLRF   xE9
1866:  CLRF   xEA
1868:  CLRF   xEB
186A:  CLRF   xEC
186C:  CLRF   xED
186E:  CLRF   xEE
1870:  CLRF   xEF
1872:  CLRF   xF0
1874:  CLRF   xF1
1876:  CLRF   xF2
1878:  CLRF   xF3
187A:  CLRF   xF4
187C:  CLRF   xF5
187E:  CLRF   xF6
1880:  CLRF   xF7
1882:  CLRF   xF8
1884:  CLRF   xF9
1886:  CLRF   xFA
1888:  CLRF   xFB
188A:  CLRF   xFC
188C:  CLRF   xFD
188E:  CLRF   xFE
1890:  CLRF   xFF
1892:  MOVLB  3
1894:  CLRF   x00
1896:  CLRF   x01
1898:  CLRF   x02
189A:  CLRF   x03
189C:  CLRF   x04
189E:  CLRF   x05
18A0:  CLRF   x06
18A2:  CLRF   x07
18A4:  CLRF   x08
18A6:  CLRF   x09
18A8:  CLRF   x0A
18AA:  CLRF   x0B
18AC:  CLRF   x0C
18AE:  CLRF   x0D
18B0:  CLRF   x0E
18B2:  CLRF   x0F
18B4:  CLRF   x10
18B6:  CLRF   x11
18B8:  CLRF   x12
18BA:  CLRF   x13
18BC:  CLRF   x14
18BE:  CLRF   x15
18C0:  CLRF   x16
18C2:  CLRF   x17
18C4:  CLRF   x18
18C6:  CLRF   x19
18C8:  CLRF   x1A
18CA:  CLRF   x1B
18CC:  CLRF   x1C
18CE:  CLRF   x1D
18D0:  CLRF   x1E
18D2:  CLRF   x1F
18D4:  CLRF   x20
18D6:  CLRF   x21
18D8:  CLRF   x22
18DA:  CLRF   x23
18DC:  CLRF   x24
18DE:  CLRF   x25
18E0:  CLRF   x26
18E2:  CLRF   x27
18E4:  CLRF   x28
18E6:  CLRF   x29
18E8:  CLRF   x2A
18EA:  CLRF   x2B
18EC:  CLRF   x2C
18EE:  CLRF   x2D
18F0:  CLRF   x2E
18F2:  CLRF   x2F
18F4:  CLRF   x30
18F6:  CLRF   x31
18F8:  CLRF   x32
18FA:  CLRF   x33
18FC:  CLRF   x34
18FE:  CLRF   x35
1900:  CLRF   x36
1902:  CLRF   x37
1904:  CLRF   x38
1906:  CLRF   x39
1908:  CLRF   x3A
190A:  CLRF   x3B
190C:  CLRF   x3C
190E:  CLRF   x3D
1910:  CLRF   x3E
1912:  CLRF   x3F
1914:  CLRF   x40
1916:  CLRF   x41
1918:  CLRF   x42
191A:  CLRF   x43
191C:  CLRF   x44
191E:  CLRF   x45
1920:  CLRF   x46
1922:  CLRF   x47
1924:  CLRF   x48
1926:  CLRF   x49
1928:  CLRF   x4A
192A:  CLRF   x4B
192C:  CLRF   x4C
192E:  CLRF   x4D
1930:  CLRF   x4E
1932:  CLRF   x4F
1934:  CLRF   x50
1936:  CLRF   x51
1938:  CLRF   x52
193A:  CLRF   x53
193C:  CLRF   x54
193E:  CLRF   x55
1940:  CLRF   x56
1942:  CLRF   x57
1944:  CLRF   x58
1946:  CLRF   x59
1948:  CLRF   x5A
194A:  CLRF   x5B
194C:  CLRF   x5C
194E:  CLRF   x5D
1950:  CLRF   x5E
1952:  CLRF   x5F
1954:  CLRF   x60
1956:  CLRF   x61
1958:  CLRF   x62
195A:  CLRF   x63
195C:  CLRF   x64
195E:  CLRF   x65
1960:  CLRF   x66
1962:  CLRF   x67
1964:  CLRF   x68
1966:  CLRF   x69
1968:  CLRF   x6A
196A:  CLRF   x6B
196C:  CLRF   x6C
196E:  CLRF   x6D
1970:  CLRF   x6E
1972:  CLRF   x6F
1974:  CLRF   x70
1976:  CLRF   x71
1978:  CLRF   x72
197A:  CLRF   x73
197C:  CLRF   x74
197E:  CLRF   x75
1980:  CLRF   x76
1982:  CLRF   x77
1984:  CLRF   x78
1986:  CLRF   x79
1988:  CLRF   x7A
198A:  CLRF   x7B
198C:  CLRF   x7C
198E:  CLRF   x7D
1990:  CLRF   x7E
1992:  CLRF   x7F
1994:  CLRF   x80
1996:  CLRF   x81
1998:  CLRF   x82
199A:  CLRF   x83
199C:  CLRF   x84
199E:  CLRF   x85
19A0:  CLRF   x86
19A2:  CLRF   x87
19A4:  CLRF   x88
19A6:  CLRF   x89
19A8:  CLRF   x8A
19AA:  CLRF   x8B
19AC:  CLRF   x8C
19AE:  CLRF   x8D
19B0:  CLRF   x8E
19B2:  CLRF   x8F
19B4:  CLRF   x90
19B6:  CLRF   x91
19B8:  CLRF   x92
19BA:  CLRF   x93
19BC:  CLRF   x94
19BE:  CLRF   x95
19C0:  CLRF   x96
19C2:  CLRF   x97
19C4:  CLRF   x98
19C6:  CLRF   x99
19C8:  CLRF   x9A
19CA:  CLRF   x9B
19CC:  CLRF   x9C
19CE:  CLRF   x9D
19D0:  CLRF   x9E
19D2:  CLRF   x9F
19D4:  CLRF   xA0
19D6:  CLRF   xA1
19D8:  CLRF   xA2
19DA:  CLRF   xA3
19DC:  CLRF   xA4
19DE:  CLRF   xA5
19E0:  CLRF   xA6
19E2:  CLRF   xA7
19E4:  CLRF   xA8
19E6:  CLRF   xA9
19E8:  CLRF   xAA
19EA:  CLRF   xAB
19EC:  CLRF   xAC
19EE:  CLRF   xAD
19F0:  CLRF   xAE
19F2:  CLRF   xAF
19F4:  CLRF   xB0
19F6:  CLRF   xB1
19F8:  CLRF   xB2
19FA:  CLRF   xB3
19FC:  CLRF   xB4
19FE:  CLRF   xB5
1A00:  CLRF   xB6
1A02:  CLRF   xB7
1A04:  CLRF   xB8
1A06:  CLRF   xB9
1A08:  CLRF   xBA
1A0A:  CLRF   xBB
1A0C:  CLRF   xBC
1A0E:  CLRF   xBD
1A10:  CLRF   xBE
1A12:  CLRF   xBF
1A14:  CLRF   xC0
1A16:  CLRF   xC1
1A18:  CLRF   xC2
1A1A:  CLRF   xC3
1A1C:  CLRF   xC4
1A1E:  CLRF   xC5
1A20:  CLRF   xC6
1A22:  CLRF   xC7
1A24:  CLRF   xC8
1A26:  CLRF   xC9
1A28:  CLRF   xCA
1A2A:  CLRF   xCB
1A2C:  CLRF   xCC
1A2E:  CLRF   xCD
1A30:  CLRF   xCE
1A32:  CLRF   xCF
1A34:  CLRF   xD0
1A36:  CLRF   xD1
1A38:  CLRF   xD2
1A3A:  CLRF   xD3
1A3C:  CLRF   xD4
1A3E:  CLRF   xD5
1A40:  CLRF   xD6
1A42:  CLRF   xD7
1A44:  CLRF   xD8
1A46:  CLRF   xD9
1A48:  CLRF   xDA
1A4A:  CLRF   xDB
1A4C:  CLRF   xDC
1A4E:  CLRF   xDD
1A50:  CLRF   xDE
1A52:  CLRF   xDF
1A54:  CLRF   xE0
1A56:  CLRF   xE1
1A58:  CLRF   xE2
1A5A:  CLRF   xE3
1A5C:  CLRF   xE4
1A5E:  CLRF   xE5
1A60:  CLRF   xE6
1A62:  CLRF   xE7
1A64:  CLRF   xE8
1A66:  CLRF   xE9
1A68:  CLRF   xEA
1A6A:  CLRF   xEB
1A6C:  CLRF   xEC
1A6E:  CLRF   xED
1A70:  CLRF   xEE
1A72:  CLRF   xEF
1A74:  CLRF   xF0
1A76:  CLRF   xF1
1A78:  CLRF   xF2
1A7A:  CLRF   xF3
1A7C:  CLRF   xF4
1A7E:  CLRF   xF5
1A80:  CLRF   xF6
1A82:  CLRF   xF7
1A84:  CLRF   xF8
1A86:  CLRF   xF9
1A88:  CLRF   xFA
1A8A:  CLRF   xFB
1A8C:  CLRF   xFC
1A8E:  CLRF   xFD
1A90:  CLRF   xFE
1A92:  CLRF   xFF
1A94:  MOVLB  4
1A96:  CLRF   x00
1A98:  CLRF   x01
1A9A:  CLRF   x02
1A9C:  CLRF   x03
1A9E:  CLRF   x04
1AA0:  CLRF   x05
1AA2:  CLRF   x06
1AA4:  CLRF   x07
1AA6:  CLRF   x08
1AA8:  CLRF   x09
1AAA:  CLRF   x0A
1AAC:  CLRF   x0B
1AAE:  CLRF   x0C
1AB0:  CLRF   x0D
1AB2:  CLRF   x0E
1AB4:  CLRF   x0F
1AB6:  CLRF   x10
1AB8:  CLRF   x11
1ABA:  CLRF   x12
1ABC:  CLRF   x13
1ABE:  CLRF   x14
1AC0:  CLRF   x15
1AC2:  CLRF   x16
1AC4:  CLRF   x17
1AC6:  CLRF   x18
1AC8:  CLRF   x19
1ACA:  CLRF   x1A
1ACC:  CLRF   x1B
1ACE:  CLRF   x1C
1AD0:  CLRF   x1D
1AD2:  CLRF   x1E
1AD4:  CLRF   x1F
1AD6:  CLRF   x20
1AD8:  CLRF   x21
1ADA:  CLRF   x22
1ADC:  CLRF   x23
1ADE:  CLRF   x24
1AE0:  CLRF   x25
1AE2:  CLRF   x26
1AE4:  CLRF   x27
1AE6:  CLRF   x28
1AE8:  CLRF   x29
1AEA:  CLRF   x2A
1AEC:  CLRF   x2B
1AEE:  CLRF   x2C
1AF0:  CLRF   x2D
1AF2:  CLRF   x2E
1AF4:  CLRF   x2F
1AF6:  CLRF   x30
1AF8:  CLRF   x31
1AFA:  CLRF   x32
1AFC:  CLRF   x33
1AFE:  CLRF   x34
1B00:  CLRF   x35
1B02:  CLRF   x36
1B04:  CLRF   x37
1B06:  CLRF   x38
1B08:  CLRF   x39
1B0A:  CLRF   x3A
1B0C:  CLRF   x3B
1B0E:  CLRF   x3C
1B10:  CLRF   x3D
1B12:  CLRF   x3E
1B14:  CLRF   x3F
1B16:  CLRF   x40
1B18:  CLRF   x41
1B1A:  CLRF   x42
1B1C:  CLRF   x43
1B1E:  CLRF   x44
1B20:  CLRF   x45
1B22:  CLRF   x46
1B24:  CLRF   x47
1B26:  CLRF   x48
1B28:  CLRF   x49
1B2A:  CLRF   x4A
1B2C:  CLRF   x4B
1B2E:  CLRF   x4C
1B30:  CLRF   x4D
1B32:  CLRF   x4E
1B34:  CLRF   x4F
1B36:  CLRF   x50
1B38:  CLRF   x51
1B3A:  CLRF   x52
1B3C:  CLRF   x53
1B3E:  CLRF   x54
1B40:  CLRF   x55
1B42:  CLRF   x56
1B44:  CLRF   x57
1B46:  CLRF   x58
1B48:  CLRF   x59
1B4A:  CLRF   x5A
1B4C:  CLRF   x5B
1B4E:  CLRF   x5C
1B50:  CLRF   x5D
1B52:  CLRF   x5E
1B54:  CLRF   x5F
1B56:  CLRF   x60
1B58:  CLRF   x61
1B5A:  CLRF   x62
1B5C:  CLRF   x63
1B5E:  CLRF   x64
1B60:  CLRF   x65
1B62:  CLRF   x66
1B64:  CLRF   x67
1B66:  CLRF   x68
1B68:  CLRF   x69
1B6A:  CLRF   x6A
1B6C:  CLRF   x6B
1B6E:  CLRF   x6C
1B70:  CLRF   x6D
1B72:  CLRF   x6E
1B74:  CLRF   x6F
1B76:  CLRF   x70
1B78:  CLRF   x71
1B7A:  CLRF   x72
1B7C:  CLRF   x73
1B7E:  CLRF   x74
1B80:  CLRF   x75
1B82:  CLRF   x76
1B84:  CLRF   x77
1B86:  CLRF   x78
1B88:  CLRF   x79
1B8A:  CLRF   x7A
1B8C:  CLRF   x7B
1B8E:  CLRF   x7C
1B90:  CLRF   x7D
1B92:  CLRF   x7E
1B94:  CLRF   x7F
1B96:  CLRF   x80
1B98:  CLRF   x81
1B9A:  CLRF   x82
1B9C:  CLRF   x83
1B9E:  CLRF   x84
1BA0:  CLRF   x85
1BA2:  CLRF   x86
1BA4:  CLRF   x87
1BA6:  CLRF   x88
1BA8:  CLRF   x89
1BAA:  CLRF   x8A
1BAC:  CLRF   x8B
1BAE:  CLRF   x8C
1BB0:  CLRF   x8D
1BB2:  CLRF   x8E
1BB4:  CLRF   x8F
1BB6:  CLRF   x90
1BB8:  CLRF   x91
1BBA:  CLRF   x92
1BBC:  CLRF   x93
1BBE:  CLRF   x94
1BC0:  CLRF   x95
1BC2:  CLRF   x96
1BC4:  CLRF   x97
1BC6:  CLRF   x98
1BC8:  CLRF   x99
1BCA:  CLRF   x9A
1BCC:  CLRF   x9B
1BCE:  CLRF   x9C
1BD0:  CLRF   x9D
1BD2:  CLRF   x9E
1BD4:  CLRF   x9F
1BD6:  CLRF   xA0
1BD8:  CLRF   xA1
1BDA:  CLRF   xA2
1BDC:  CLRF   xA3
1BDE:  CLRF   xA4
1BE0:  CLRF   xA5
1BE2:  CLRF   xA6
1BE4:  CLRF   xA7
1BE6:  CLRF   xA8
1BE8:  CLRF   xA9
1BEA:  CLRF   xAA
1BEC:  CLRF   xAB
1BEE:  CLRF   xAC
1BF0:  CLRF   xAD
1BF2:  CLRF   xAE
1BF4:  CLRF   xAF
1BF6:  CLRF   xB0
1BF8:  CLRF   xB1
1BFA:  CLRF   xB2
1BFC:  CLRF   xB3
1BFE:  CLRF   xB4
1C00:  CLRF   xB5
1C02:  CLRF   xB6
1C04:  CLRF   xB7
1C06:  CLRF   xB8
1C08:  CLRF   xB9
1C0A:  CLRF   xBA
1C0C:  CLRF   xBB
1C0E:  CLRF   xBC
1C10:  CLRF   xBD
1C12:  CLRF   xBE
1C14:  CLRF   xBF
1C16:  CLRF   xC0
1C18:  CLRF   xC1
1C1A:  CLRF   xC2
1C1C:  CLRF   xC3
1C1E:  CLRF   xC4
1C20:  CLRF   xC5
1C22:  CLRF   xC6
1C24:  CLRF   xC7
1C26:  CLRF   xC8
1C28:  CLRF   xC9
1C2A:  CLRF   xCA
1C2C:  CLRF   xCB
1C2E:  CLRF   xCC
1C30:  CLRF   xCD
1C32:  CLRF   xCE
1C34:  CLRF   xCF
1C36:  CLRF   xD0
1C38:  CLRF   xD1
1C3A:  CLRF   xD2
1C3C:  CLRF   xD3
1C3E:  CLRF   xD4
1C40:  CLRF   xD5
1C42:  CLRF   xD6
1C44:  CLRF   xD7
1C46:  CLRF   xD8
1C48:  CLRF   xD9
1C4A:  CLRF   xDA
1C4C:  CLRF   xDB
1C4E:  CLRF   xDC
1C50:  CLRF   xDD
1C52:  CLRF   xDE
1C54:  CLRF   xDF
1C56:  CLRF   xE0
1C58:  CLRF   xE1
1C5A:  CLRF   xE2
1C5C:  CLRF   xE3
1C5E:  CLRF   xE4
1C60:  CLRF   xE5
1C62:  CLRF   xE6
1C64:  CLRF   xE7
1C66:  CLRF   xE8
1C68:  CLRF   xE9
1C6A:  CLRF   xEA
1C6C:  CLRF   xEB
1C6E:  CLRF   xEC
1C70:  CLRF   xED
1C72:  CLRF   xEE
1C74:  CLRF   xEF
1C76:  CLRF   xF0
1C78:  CLRF   xF1
1C7A:  CLRF   xF2
1C7C:  CLRF   xF3
1C7E:  CLRF   xF4
1C80:  CLRF   xF5
1C82:  CLRF   xF6
1C84:  CLRF   xF7
1C86:  CLRF   xF8
1C88:  CLRF   xF9
1C8A:  CLRF   xFA
1C8C:  CLRF   xFB
1C8E:  CLRF   xFC
1C90:  CLRF   xFD
1C92:  CLRF   xFE
1C94:  CLRF   xFF
1C96:  MOVLB  5
1C98:  CLRF   x00
1C9A:  CLRF   x01
1C9C:  CLRF   x02
1C9E:  CLRF   x03
1CA0:  CLRF   x04
1CA2:  CLRF   x05
1CA4:  CLRF   x06
1CA6:  CLRF   x07
1CA8:  CLRF   x08
1CAA:  CLRF   x09
1CAC:  CLRF   x0A
1CAE:  CLRF   x0B
1CB0:  CLRF   x0C
1CB2:  CLRF   x0D
1CB4:  CLRF   x0E
1CB6:  CLRF   x0F
1CB8:  CLRF   x10
1CBA:  CLRF   x11
1CBC:  CLRF   x12
1CBE:  CLRF   x13
1CC0:  CLRF   x14
1CC2:  CLRF   x15
1CC4:  CLRF   x16
1CC6:  CLRF   x17
1CC8:  CLRF   x18
1CCA:  CLRF   x19
1CCC:  CLRF   x1A
1CCE:  CLRF   x1B
1CD0:  CLRF   x1C
1CD2:  CLRF   x1D
1CD4:  CLRF   x1E
1CD6:  CLRF   x1F
1CD8:  CLRF   x20
1CDA:  CLRF   x21
1CDC:  CLRF   x22
1CDE:  CLRF   x23
1CE0:  CLRF   x24
1CE2:  CLRF   x25
1CE4:  CLRF   x26
1CE6:  CLRF   x27
1CE8:  CLRF   x28
1CEA:  CLRF   x29
1CEC:  CLRF   x2A
1CEE:  CLRF   x2B
1CF0:  CLRF   x2C
1CF2:  CLRF   x2D
1CF4:  CLRF   x2E
1CF6:  CLRF   x2F
1CF8:  CLRF   x30
1CFA:  CLRF   x31
1CFC:  CLRF   x32
1CFE:  CLRF   x33
1D00:  CLRF   x34
1D02:  CLRF   x35
1D04:  CLRF   x36
1D06:  CLRF   x37
1D08:  CLRF   x38
1D0A:  CLRF   x39
1D0C:  CLRF   x3A
1D0E:  CLRF   x3B
1D10:  CLRF   x3C
1D12:  CLRF   x3D
1D14:  CLRF   x3E
1D16:  CLRF   x3F
1D18:  CLRF   x40
1D1A:  CLRF   x41
1D1C:  CLRF   x42
1D1E:  CLRF   x43
1D20:  CLRF   x44
1D22:  CLRF   x45
1D24:  CLRF   x46
1D26:  CLRF   x47
1D28:  CLRF   x48
1D2A:  CLRF   x49
1D2C:  CLRF   x4A
1D2E:  CLRF   x4B
1D30:  CLRF   x4C
1D32:  CLRF   x4D
1D34:  CLRF   x4E
1D36:  CLRF   x4F
1D38:  CLRF   x50
1D3A:  CLRF   x51
1D3C:  CLRF   x52
1D3E:  CLRF   x53
1D40:  CLRF   x54
1D42:  CLRF   x55
1D44:  CLRF   x56
1D46:  CLRF   x57
1D48:  CLRF   x58
1D4A:  CLRF   x59
1D4C:  CLRF   x5A
1D4E:  CLRF   x5B
1D50:  CLRF   x5C
1D52:  CLRF   x5D
1D54:  CLRF   x5E
1D56:  CLRF   x5F
1D58:  CLRF   x60
1D5A:  CLRF   x61
1D5C:  CLRF   x62
1D5E:  CLRF   x63
1D60:  CLRF   x64
1D62:  CLRF   x65
1D64:  CLRF   x66
1D66:  CLRF   x67
1D68:  CLRF   x68
1D6A:  CLRF   x69
1D6C:  CLRF   x6A
1D6E:  CLRF   x6B
1D70:  CLRF   x6C
1D72:  CLRF   x6D
1D74:  CLRF   x6E
1D76:  CLRF   x6F
1D78:  CLRF   x70
1D7A:  CLRF   x71
1D7C:  CLRF   x72
1D7E:  CLRF   x73
1D80:  CLRF   x74
1D82:  CLRF   x75
1D84:  CLRF   x76
1D86:  CLRF   x77
1D88:  CLRF   x78
1D8A:  CLRF   x79
1D8C:  CLRF   x7A
1D8E:  CLRF   x7B
1D90:  CLRF   x7C
1D92:  CLRF   x7D
1D94:  CLRF   x7E
1D96:  CLRF   x7F
1D98:  CLRF   x80
1D9A:  CLRF   x81
1D9C:  CLRF   x82
1D9E:  CLRF   x83
1DA0:  CLRF   x84
1DA2:  CLRF   x85
1DA4:  CLRF   x86
1DA6:  CLRF   x87
1DA8:  CLRF   x88
1DAA:  CLRF   x89
1DAC:  CLRF   x8A
1DAE:  CLRF   x8B
1DB0:  CLRF   x8C
1DB2:  CLRF   x8D
1DB4:  CLRF   x8E
1DB6:  CLRF   x8F
1DB8:  CLRF   x90
1DBA:  CLRF   x91
1DBC:  CLRF   x92
1DBE:  CLRF   x93
1DC0:  CLRF   x94
1DC2:  CLRF   x95
1DC4:  CLRF   x96
1DC6:  CLRF   x97
1DC8:  CLRF   x98
1DCA:  CLRF   x99
1DCC:  CLRF   x9A
1DCE:  CLRF   x9B
1DD0:  CLRF   x9C
1DD2:  CLRF   x9D
1DD4:  CLRF   x9E
1DD6:  CLRF   x9F
1DD8:  CLRF   xA0
1DDA:  CLRF   xA1
1DDC:  CLRF   xA2
1DDE:  CLRF   xA3
1DE0:  CLRF   xA4
1DE2:  CLRF   xA5
1DE4:  CLRF   xA6
1DE6:  CLRF   xA7
1DE8:  CLRF   xA8
1DEA:  CLRF   xA9
1DEC:  CLRF   xAA
1DEE:  CLRF   xAB
1DF0:  CLRF   xAC
1DF2:  CLRF   xAD
1DF4:  CLRF   xAE
1DF6:  CLRF   xAF
1DF8:  CLRF   xB0
1DFA:  CLRF   xB1
1DFC:  CLRF   xB2
1DFE:  CLRF   xB3
1E00:  CLRF   xB4
1E02:  CLRF   xB5
1E04:  CLRF   xB6
1E06:  CLRF   xB7
1E08:  CLRF   xB8
1E0A:  CLRF   xB9
1E0C:  CLRF   xBA
1E0E:  CLRF   xBB
1E10:  CLRF   xBC
1E12:  CLRF   xBD
1E14:  CLRF   xBE
1E16:  CLRF   xBF
1E18:  CLRF   xC0
1E1A:  CLRF   xC1
1E1C:  CLRF   xC2
1E1E:  CLRF   xC3
1E20:  CLRF   xC4
1E22:  CLRF   xC5
1E24:  CLRF   xC6
1E26:  CLRF   xC7
1E28:  CLRF   xC8
1E2A:  CLRF   xC9
1E2C:  CLRF   xCA
1E2E:  CLRF   xCB
1E30:  CLRF   xCC
1E32:  CLRF   xCD
1E34:  CLRF   xCE
1E36:  CLRF   xCF
1E38:  CLRF   xD0
1E3A:  CLRF   xD1
1E3C:  CLRF   xD2
1E3E:  CLRF   xD3
1E40:  CLRF   xD4
1E42:  CLRF   xD5
1E44:  CLRF   xD6
1E46:  CLRF   xD7
1E48:  CLRF   xD8
1E4A:  CLRF   xD9
1E4C:  CLRF   xDA
1E4E:  CLRF   xDB
1E50:  CLRF   xDC
1E52:  CLRF   xDD
1E54:  CLRF   xDE
1E56:  CLRF   xDF
1E58:  CLRF   xE0
1E5A:  CLRF   xE1
1E5C:  CLRF   xE2
1E5E:  CLRF   xE3
1E60:  CLRF   xE4
1E62:  CLRF   xE5
1E64:  CLRF   xE6
1E66:  CLRF   xE7
1E68:  CLRF   xE8
1E6A:  CLRF   xE9
1E6C:  CLRF   xEA
1E6E:  CLRF   xEB
1E70:  CLRF   xEC
1E72:  CLRF   xED
1E74:  CLRF   xEE
1E76:  CLRF   xEF
1E78:  CLRF   xF0
1E7A:  CLRF   xF1
1E7C:  CLRF   xF2
1E7E:  CLRF   xF3
1E80:  CLRF   xF4
1E82:  CLRF   xF5
1E84:  CLRF   xF6
1E86:  CLRF   xF7
1E88:  CLRF   xF8
1E8A:  CLRF   xF9
1E8C:  CLRF   xFA
1E8E:  CLRF   xFB
1E90:  CLRF   xFC
1E92:  CLRF   xFD
1E94:  CLRF   xFE
1E96:  CLRF   xFF
....................      set_tris_a (0x0f); 
1E98:  MOVLW  0F
1E9A:  MOVWF  F92
....................      lcd_init(); 
1E9C:  MOVLB  0
1E9E:  GOTO   0FFA
....................      enable_interrupts (INT_rda) ; 
1EA2:  BSF    F9D.5
....................      enable_interrupts (GLOBAL) ; 
1EA4:  MOVLW  C0
1EA6:  IORWF  FF2,F
....................       
....................     lcd_putc("\f"); 
1EA8:  MOVLW  D8
1EAA:  MOVWF  FF6
1EAC:  MOVLW  0E
1EAE:  MOVWF  FF7
1EB0:  CALL   10FA
....................     lcd_gotoxy (1, 1) ; 
1EB4:  MOVLW  01
1EB6:  MOVLB  6
1EB8:  MOVWF  x0C
1EBA:  MOVWF  x0D
1EBC:  MOVLB  0
1EBE:  CALL   1078
....................     printf (lcd_putc, "AUTOR"); 
1EC2:  MOVLW  DA
1EC4:  MOVWF  FF6
1EC6:  MOVLW  0E
1EC8:  MOVWF  FF7
1ECA:  CALL   10FA
....................     lcd_gotoxy (1, 2) ; 
1ECE:  MOVLW  01
1ED0:  MOVLB  6
1ED2:  MOVWF  x0C
1ED4:  MOVLW  02
1ED6:  MOVWF  x0D
1ED8:  MOVLB  0
1EDA:  CALL   1078
....................     printf (lcd_putc, "JAIME DIAZ1"); 
1EDE:  MOVLW  E0
1EE0:  MOVWF  FF6
1EE2:  MOVLW  0E
1EE4:  MOVWF  FF7
1EE6:  CALL   10FA
....................     delay_ms(1000); 
1EEA:  MOVLW  04
1EEC:  MOVLB  6
1EEE:  MOVWF  x02
1EF0:  MOVLW  FA
1EF2:  MOVWF  x0C
1EF4:  MOVLB  0
1EF6:  CALL   0F1E
1EFA:  MOVLB  6
1EFC:  DECFSZ x02,F
1EFE:  BRA    1EF0
....................      
....................     setup_ccp1 (ccp_pwm) ; 
1F00:  BCF    F94.2
1F02:  BCF    F8B.2
1F04:  BCF    F96.6
1F06:  MOVLW  0C
1F08:  MOVWF  FBD
1F0A:  CLRF   FB7
1F0C:  CLRF   FB6
....................     setup_timer_2 (t2_div_by_1, 255, 1) ; 
1F0E:  MOVLW  00
1F10:  IORLW  04
1F12:  MOVWF  FCA
1F14:  MOVLW  FF
1F16:  MOVWF  FCB
....................      
....................  while (true){ 
....................  output_low(pin_a5); 
1F18:  BCF    F92.5
1F1A:  BCF    F89.5
....................     
.................... //////////////////cominicacion con eeprom  
....................   
.................... if(x==0){ 
1F1C:  MOVF   18,F
1F1E:  BTFSS  FD8.2
1F20:  BRA    2084
.................... x=1; 
1F22:  MOVLW  01
1F24:  MOVWF  18
....................  
....................       
.................... for(d=0;d<=l1;d++){ 
1F26:  CLRF   1F
1F28:  CLRF   1E
1F2A:  MOVF   1F,W
1F2C:  SUBWF  1D,W
1F2E:  BTFSS  FD8.0
1F30:  BRA    2026
1F32:  BNZ   1F3A
1F34:  MOVF   1E,W
1F36:  SUBWF  1C,W
1F38:  BNC   2026
....................  
....................    i2c_start();           /// inicio 
1F3A:  BSF    F93.0
1F3C:  NOP   
1F3E:  BSF    F93.1
1F40:  NOP   
1F42:  BCF    F8A.0
1F44:  BCF    F93.0
1F46:  NOP   
1F48:  BCF    F8A.1
1F4A:  BCF    F93.1
....................    i2c_write(0xA2);        ///direccion 
1F4C:  MOVLW  A2
1F4E:  MOVWF  x03
1F50:  MOVLB  0
1F52:  CALL   111A
....................    i2c_write(b);          ///direccion 
1F56:  MOVFF  19,603
1F5A:  CALL   111A
....................    i2c_write(c); 
1F5E:  MOVFF  22,603
1F62:  CALL   111A
....................    i2c_write(voz[d]); 
1F66:  MOVFF  1F,03
1F6A:  MOVF   1E,W
1F6C:  MOVFF  FF2,602
1F70:  BCF    FF2.7
1F72:  MOVFF  1F,FF7
1F76:  CALL   00B4
1F7A:  MOVLB  6
1F7C:  BTFSC  x02.7
1F7E:  BSF    FF2.7
1F80:  MOVWF  x02
1F82:  MOVWF  x03
1F84:  MOVLB  0
1F86:  CALL   111A
....................    i2c_stop(); 
1F8A:  BCF    F93.0
1F8C:  NOP   
1F8E:  BSF    F93.1
1F90:  BTFSS  F81.1
1F92:  BRA    1F90
1F94:  NOP   
1F96:  BRA    1F98
1F98:  NOP   
1F9A:  BSF    F93.0
1F9C:  NOP   
....................    delay_ms(3); 
1F9E:  MOVLW  03
1FA0:  MOVLB  6
1FA2:  MOVWF  x0C
1FA4:  MOVLB  0
1FA6:  CALL   0F1E
....................   
....................  
....................  if((c)>=255){ 
1FAA:  MOVF   23,F
1FAC:  BNZ   1FB4
1FAE:  MOVF   22,W
1FB0:  SUBLW  FE
1FB2:  BC    1FBC
....................  b++; 
1FB4:  INCF   19,F
....................  c=-1; 
1FB6:  MOVLW  FF
1FB8:  MOVWF  23
1FBA:  MOVWF  22
....................  } 
....................   
....................   lcd_putc("\f"); 
1FBC:  MOVLW  EC
1FBE:  MOVWF  FF6
1FC0:  MOVLW  0E
1FC2:  MOVWF  FF7
1FC4:  CALL   10FA
....................    lcd_gotoxy (1, 1) ; 
1FC8:  MOVLW  01
1FCA:  MOVLB  6
1FCC:  MOVWF  x0C
1FCE:  MOVWF  x0D
1FD0:  MOVLB  0
1FD2:  CALL   1078
....................    printf (lcd_putc, "numero=%ld %ld",d, c); 
1FD6:  MOVLW  EE
1FD8:  MOVWF  FF6
1FDA:  MOVLW  0E
1FDC:  MOVWF  FF7
1FDE:  MOVLW  07
1FE0:  MOVLB  6
1FE2:  MOVWF  x02
1FE4:  MOVLB  0
1FE6:  GOTO   116C
1FEA:  MOVLW  10
1FEC:  MOVWF  FE9
1FEE:  MOVFF  1F,603
1FF2:  MOVFF  1E,602
1FF6:  CALL   1196
1FFA:  MOVLW  20
1FFC:  MOVLB  6
1FFE:  MOVWF  x0B
2000:  MOVLB  0
2002:  CALL   109E
2006:  MOVLW  10
2008:  MOVWF  FE9
200A:  MOVFF  23,603
200E:  MOVFF  22,602
2012:  CALL   1196
....................    c++; 
2016:  INCF   22,F
2018:  BTFSC  FD8.2
201A:  INCF   23,F
.................... } 
201C:  INCF   1E,F
201E:  BTFSC  FD8.2
2020:  INCF   1F,F
2022:  MOVLB  6
2024:  BRA    1F2A
....................   
....................   /*  
....................    i2c_start();           /// inicio 
....................    output_high(pin_a5); 
....................    i2c_write(0xA2);        ///direccion 
....................    i2c_write(0x01);          ///direccion 
....................    i2c_write(dato); 
....................    i2c_write(dato); 
....................    i2c_stop(); 
....................     
....................   */ 
....................     lcd_putc("\f"); 
2026:  MOVLW  FE
2028:  MOVWF  FF6
202A:  MOVLW  0E
202C:  MOVWF  FF7
202E:  MOVLB  0
2030:  CALL   10FA
....................    lcd_gotoxy (1, 1) ; 
2034:  MOVLW  01
2036:  MOVLB  6
2038:  MOVWF  x0C
203A:  MOVWF  x0D
203C:  MOVLB  0
203E:  CALL   1078
....................    printf (lcd_putc, "LISTO DATO OK"); 
2042:  MOVLW  00
2044:  MOVWF  FF6
2046:  MOVLW  0F
2048:  MOVWF  FF7
204A:  CALL   10FA
....................    lcd_gotoxy (1, 2) ; 
204E:  MOVLW  01
2050:  MOVLB  6
2052:  MOVWF  x0C
2054:  MOVLW  02
2056:  MOVWF  x0D
2058:  MOVLB  0
205A:  CALL   1078
....................    printf (lcd_putc, "GUARDADO EEPROM"); 
205E:  MOVLW  0E
2060:  MOVWF  FF6
2062:  MOVLW  0F
2064:  MOVWF  FF7
2066:  CALL   10FA
....................    delay_ms(1000); 
206A:  MOVLW  04
206C:  MOVLB  6
206E:  MOVWF  x02
2070:  MOVLW  FA
2072:  MOVWF  x0C
2074:  MOVLB  0
2076:  CALL   0F1E
207A:  MOVLB  6
207C:  DECFSZ x02,F
207E:  BRA    2070
....................    c=0; 
2080:  CLRF   23
2082:  CLRF   22
.................... } 
....................  
.................... ///////////////////// lectura de datos   
.................... /* 
.................... for(d=0;d<=l1;d++){ 
....................  
....................    i2c_start(); 
....................    i2c_write(0xA2); 
....................    i2c_write(b1); 
....................    i2c_write(dato); 
....................    i2c_start(); 
....................    i2c_write(0xA3); 
....................    dato2=voz1[d]=i2c_read(0); 
....................    dato1=voz1[d]; 
....................    i2c_stop(); 
....................    delay_ms(j); 
....................     
....................  if((dato)>=255){ 
....................  b1++; 
....................  dato=-1; 
....................  } 
....................  lcd_putc("\f"); 
....................  lcd_gotoxy (1, 1) ; 
....................  printf (lcd_putc, "DATOg =%ld %u",d,dato1); 
....................  lcd_gotoxy (1, 2) ; 
....................  printf (lcd_putc, "%u",dato2); 
....................  dato++; 
....................    
.................... } 
.................... b1=0; 
.................... dato=24; 
....................  
....................  
....................       
....................    lcd_putc("\f"); 
....................    lcd_gotoxy (1, 1) ; 
....................    printf (lcd_putc, "LISTO"); 
....................    lcd_gotoxy (1, 2) ; 
....................    printf (lcd_putc, "EEPROM"); 
....................    delay_ms(1000); 
....................  /*   
....................    lcd_putc("\f"); 
....................    lcd_gotoxy (1, 1) ; 
....................    printf (lcd_putc, "DATO =%ld",c-22); 
....................    lcd_gotoxy (1, 2) ; 
....................    printf (lcd_putc, "EEPROM =%ld",dato1); 
....................    delay_ms(10); 
.................... */ 
....................    
....................  } 
2084:  BRA    1F18
.................... } 
2086:  SLEEP 

Configuration Fuses:
   Word  1: CC27   IESO FCMEN HS PLL12 CPUDIV1 USBDIV
   Word  2: 1E19   NOBROWNOUT NOWDT BORV20 NOPUT WDT32768 NOVREGEN
   Word  3: 8500   NOPBADEN CCP2C1 MCLR LPT1OSC
   Word  4: 0081   STVREN NODEBUG NOLVP NOXINST NOICPRT
   Word  5: C00F   NOPROTECT NOCPD NOCPB
   Word  6: E00F   NOWRT NOWRTD NOWRTC NOWRTB
   Word  7: 400F   NOEBTR NOEBTRB
